# SymbolsHelper-Confirmed: 4:15.08.0+git20150717.1756+15.04 amd64
libKF5AkonadiCore.so.5 libkf5akonadicore5 #MINVER#
 _Z5qHashRKN7Akonadi10CollectionE@Base 15.07.90
 _Z5qHashRKN7Akonadi3TagE@Base 15.07.90
 _Z5qHashRKN7Akonadi6EntityE@Base 15.07.90
 _Z5qHashRKN7Akonadi8RelationE@Base 15.07.90
 (optional=templinst)_ZN12KConfigGroup10writeEntryIxEEvPKcRK5QListIT_E6QFlagsIN11KConfigBase15WriteConfigFlagEE@Base 15.07.90
 _ZN12RelationSync10slotResultEP4KJob@Base 15.07.90
 _ZN12RelationSync11qt_metacallEN11QMetaObject4CallEiPPv@Base 15.07.90
 _ZN12RelationSync11qt_metacastEPKc@Base 15.07.90
 _ZN12RelationSync13diffRelationsEv@Base 15.07.90
 _ZN12RelationSync16onLocalFetchDoneEP4KJob@Base 15.07.90
 _ZN12RelationSync16staticMetaObjectE@Base 15.07.90
 _ZN12RelationSync18setRemoteRelationsERK7QVectorIN7Akonadi8RelationEE@Base 15.07.90
 _ZN12RelationSync7doStartEv@Base 15.07.90
 _ZN12RelationSync9checkDoneEv@Base 15.07.90
 _ZN12RelationSyncC1EP7QObject@Base 15.07.90
 _ZN12RelationSyncC2EP7QObject@Base 15.07.90
 _ZN12RelationSyncD0Ev@Base 15.07.90
 _ZN12RelationSyncD1Ev@Base 15.07.90
 _ZN12RelationSyncD2Ev@Base 15.07.90
 _ZN33CollectionIdentificationAttribute11deserializeERK10QByteArray@Base 15.07.90
 _ZN33CollectionIdentificationAttribute13setIdentifierERK10QByteArray@Base 15.07.90
 _ZN33CollectionIdentificationAttribute22setCollectionNamespaceERK10QByteArray@Base 15.07.90
 _ZN33CollectionIdentificationAttribute5setOuERK10QByteArray@Base 15.07.90
 _ZN33CollectionIdentificationAttribute7setMailERK10QByteArray@Base 15.07.90
 _ZN33CollectionIdentificationAttribute7setNameERK10QByteArray@Base 15.07.90
 _ZN33CollectionIdentificationAttributeC1ERK10QByteArrayS2_S2_S2_S2_@Base 15.07.90
 _ZN33CollectionIdentificationAttributeC2ERK10QByteArrayS2_S2_S2_S2_@Base 15.07.90
 _ZN33CollectionIdentificationAttributeD0Ev@Base 15.07.90
 _ZN33CollectionIdentificationAttributeD1Ev@Base 15.07.90
 _ZN33CollectionIdentificationAttributeD2Ev@Base 15.07.90
 _ZN7Akonadi10Collection10setEnabledEb@Base 15.07.90
 _ZN7Akonadi10Collection10setVirtualEb@Base 15.07.90
 _ZN7Akonadi10Collection11setResourceERK7QString@Base 15.07.90
 _ZN7Akonadi10Collection13setReferencedEb@Base 15.07.90
 _ZN7Akonadi10Collection13setShouldListENS0_11ListPurposeEb@Base 15.07.90
 _ZN7Akonadi10Collection13setStatisticsERKNS_20CollectionStatisticsE@Base 15.07.90
 _ZN7Akonadi10Collection14setCachePolicyERKNS_11CachePolicyE@Base 15.07.90
 _ZN7Akonadi10Collection15virtualMimeTypeEv@Base 15.07.90
 _ZN7Akonadi10Collection19setContentMimeTypesERK11QStringList@Base 15.07.90
 _ZN7Akonadi10Collection19setKeepLocalChangesERK4QSetI10QByteArrayE@Base 15.07.90
 _ZN7Akonadi10Collection22setLocalListPreferenceENS0_11ListPurposeENS0_14ListPreferenceE@Base 15.07.90
 _ZN7Akonadi10Collection4rootEv@Base 15.07.90
 _ZN7Akonadi10Collection6d_funcEv@Base 15.07.90
 _ZN7Akonadi10Collection7fromUrlERK4QUrl@Base 15.07.90
 _ZN7Akonadi10Collection7setNameERK7QString@Base 15.07.90
 _ZN7Akonadi10Collection8mimeTypeEv@Base 15.07.90
 _ZN7Akonadi10Collection9setRightsE6QFlagsINS0_5RightEE@Base 15.07.90
 _ZN7Akonadi10CollectionC1ERKS0_@Base 15.07.90
 _ZN7Akonadi10CollectionC1Ev@Base 15.07.90
 _ZN7Akonadi10CollectionC1Ex@Base 15.07.90
 _ZN7Akonadi10CollectionC2ERKS0_@Base 15.07.90
 _ZN7Akonadi10CollectionC2Ev@Base 15.07.90
 _ZN7Akonadi10CollectionC2Ex@Base 15.07.90
 _ZN7Akonadi10CollectionD1Ev@Base 15.07.90
 _ZN7Akonadi10CollectionD2Ev@Base 15.07.90
 _ZN7Akonadi10GetLockJob11qt_metacallEN11QMetaObject4CallEiPPv@Base 15.07.90
 _ZN7Akonadi10GetLockJob11qt_metacastEPKc@Base 15.07.90
 _ZN7Akonadi10GetLockJob16staticMetaObjectE@Base 15.07.90
 _ZN7Akonadi10GetLockJob5startEv@Base 15.07.90
 _ZN7Akonadi10GetLockJob7Private19serviceOwnerChangedERK7QStringS4_S4_@Base 15.07.90
 _ZN7Akonadi10GetLockJob7Private7doStartEv@Base 15.07.90
 _ZN7Akonadi10GetLockJob7Private7timeoutEv@Base 15.07.90
 _ZN7Akonadi10GetLockJob7PrivateC1EPS0_@Base 15.07.90
 _ZN7Akonadi10GetLockJob7PrivateC2EPS0_@Base 15.07.90
 _ZN7Akonadi10GetLockJobC1EP7QObject@Base 15.07.90
 _ZN7Akonadi10GetLockJobC2EP7QObject@Base 15.07.90
 _ZN7Akonadi10GetLockJobD0Ev@Base 15.07.90
 _ZN7Akonadi10GetLockJobD1Ev@Base 15.07.90
 _ZN7Akonadi10GetLockJobD2Ev@Base 15.07.90
 _ZN7Akonadi10SearchTerm10addSubTermERKS0_@Base 15.07.90
 _ZN7Akonadi10SearchTerm12setIsNegatedEb@Base 15.07.90
 _ZN7Akonadi10SearchTermC1ENS0_8RelationE@Base 15.07.90
 _ZN7Akonadi10SearchTermC1ERK7QStringRK8QVariantNS0_9ConditionE@Base 15.07.90
 _ZN7Akonadi10SearchTermC1ERKS0_@Base 15.07.90
 _ZN7Akonadi10SearchTermC2ENS0_8RelationE@Base 15.07.90
 _ZN7Akonadi10SearchTermC2ERK7QStringRK8QVariantNS0_9ConditionE@Base 15.07.90
 _ZN7Akonadi10SearchTermC2ERKS0_@Base 15.07.90
 _ZN7Akonadi10SearchTermD1Ev@Base 15.07.90
 _ZN7Akonadi10SearchTermD2Ev@Base 15.07.90
 _ZN7Akonadi10SearchTermaSERKS0_@Base 15.07.90
 _ZN7Akonadi11CachePolicy13setLocalPartsERK11QStringList@Base 15.07.90
 _ZN7Akonadi11CachePolicy15setCacheTimeoutEi@Base 15.07.90
 _ZN7Akonadi11CachePolicy15setSyncOnDemandEb@Base 15.07.90
 _ZN7Akonadi11CachePolicy20setInheritFromParentEb@Base 15.07.90
 _ZN7Akonadi11CachePolicy20setIntervalCheckTimeEi@Base 15.07.90
 _ZN7Akonadi11CachePolicyC1ERKS0_@Base 15.07.90
 _ZN7Akonadi11CachePolicyC1Ev@Base 15.07.90
 _ZN7Akonadi11CachePolicyC2ERKS0_@Base 15.07.90
 _ZN7Akonadi11CachePolicyC2Ev@Base 15.07.90
 _ZN7Akonadi11CachePolicyD1Ev@Base 15.07.90
 _ZN7Akonadi11CachePolicyD2Ev@Base 15.07.90
 _ZN7Akonadi11CachePolicyaSERKS0_@Base 15.07.90
 _ZN7Akonadi11ItemCopyJob11qt_metacallEN11QMetaObject4CallEiPPv@Base 15.07.90
 _ZN7Akonadi11ItemCopyJob11qt_metacastEPKc@Base 15.07.90
 _ZN7Akonadi11ItemCopyJob16doHandleResponseExRKNS_8Protocol7CommandE@Base 15.07.90
 _ZN7Akonadi11ItemCopyJob16staticMetaObjectE@Base 15.07.90
 _ZN7Akonadi11ItemCopyJob7doStartEv@Base 15.07.90
 _ZN7Akonadi11ItemCopyJobC1ERK7QVectorINS_4ItemEERKNS_10CollectionEP7QObject@Base 15.07.90
 _ZN7Akonadi11ItemCopyJobC1ERKNS_4ItemERKNS_10CollectionEP7QObject@Base 15.07.90
 _ZN7Akonadi11ItemCopyJobC2ERK7QVectorINS_4ItemEERKNS_10CollectionEP7QObject@Base 15.07.90
 _ZN7Akonadi11ItemCopyJobC2ERKNS_4ItemERKNS_10CollectionEP7QObject@Base 15.07.90
 _ZN7Akonadi11ItemCopyJobD0Ev@Base 15.07.90
 _ZN7Akonadi11ItemCopyJobD1Ev@Base 15.07.90
 _ZN7Akonadi11ItemCopyJobD2Ev@Base 15.07.90
 _ZN7Akonadi11ItemMonitor10fetchScopeEv@Base 15.07.90
 _ZN7Akonadi11ItemMonitor11itemChangedERKNS_4ItemE@Base 15.07.90
 _ZN7Akonadi11ItemMonitor11itemRemovedEv@Base 15.07.90
 _ZN7Akonadi11ItemMonitor13setFetchScopeERKNS_14ItemFetchScopeE@Base 15.07.90
 _ZN7Akonadi11ItemMonitor7Private11qt_metacallEN11QMetaObject4CallEiPPv@Base 15.07.90
 _ZN7Akonadi11ItemMonitor7Private11qt_metacastEPKc@Base 15.07.90
 _ZN7Akonadi11ItemMonitor7Private16staticMetaObjectE@Base 15.07.90
 _ZN7Akonadi11ItemMonitor7setItemERKNS_4ItemE@Base 15.07.90
 _ZN7Akonadi11ItemMonitorC1Ev@Base 15.07.90
 _ZN7Akonadi11ItemMonitorC2Ev@Base 15.07.90
 _ZN7Akonadi11ItemMonitorD0Ev@Base 15.07.90
 _ZN7Akonadi11ItemMonitorD1Ev@Base 15.07.90
 _ZN7Akonadi11ItemMonitorD2Ev@Base 15.07.90
 _ZN7Akonadi11ItemMoveJob11qt_metacallEN11QMetaObject4CallEiPPv@Base 15.07.90
 _ZN7Akonadi11ItemMoveJob11qt_metacastEPKc@Base 15.07.90
 _ZN7Akonadi11ItemMoveJob16doHandleResponseExRKNS_8Protocol7CommandE@Base 15.07.90
 _ZN7Akonadi11ItemMoveJob16staticMetaObjectE@Base 15.07.90
 _ZN7Akonadi11ItemMoveJob7doStartEv@Base 15.07.90
 _ZN7Akonadi11ItemMoveJobC1ERK7QVectorINS_4ItemEERKNS_10CollectionEP7QObject@Base 15.07.90
 _ZN7Akonadi11ItemMoveJobC1ERK7QVectorINS_4ItemEERKNS_10CollectionES8_P7QObject@Base 15.07.90
 _ZN7Akonadi11ItemMoveJobC1ERKNS_4ItemERKNS_10CollectionEP7QObject@Base 15.07.90
 _ZN7Akonadi11ItemMoveJobC2ERK7QVectorINS_4ItemEERKNS_10CollectionEP7QObject@Base 15.07.90
 _ZN7Akonadi11ItemMoveJobC2ERK7QVectorINS_4ItemEERKNS_10CollectionES8_P7QObject@Base 15.07.90
 _ZN7Akonadi11ItemMoveJobC2ERKNS_4ItemERKNS_10CollectionEP7QObject@Base 15.07.90
 _ZN7Akonadi11ItemMoveJobD0Ev@Base 15.07.90
 _ZN7Akonadi11ItemMoveJobD1Ev@Base 15.07.90
 _ZN7Akonadi11ItemMoveJobD2Ev@Base 15.07.90
 _ZN7Akonadi11PartFetcher11qt_metacallEN11QMetaObject4CallEiPPv@Base 15.07.90
 _ZN7Akonadi11PartFetcher11qt_metacastEPKc@Base 15.07.90
 _ZN7Akonadi11PartFetcher16staticMetaObjectE@Base 15.07.90
 _ZN7Akonadi11PartFetcher5startEv@Base 15.07.90
 _ZN7Akonadi11PartFetcherC1ERK11QModelIndexRK10QByteArrayP7QObject@Base 15.07.90
 _ZN7Akonadi11PartFetcherC2ERK11QModelIndexRK10QByteArrayP7QObject@Base 15.07.90
 _ZN7Akonadi11PartFetcherD0Ev@Base 15.07.90
 _ZN7Akonadi11PartFetcherD1Ev@Base 15.07.90
 _ZN7Akonadi11PartFetcherD2Ev@Base 15.07.90
 _ZN7Akonadi11PasteHelper12pasteUriListEPK9QMimeDataRKNS_10CollectionEN2Qt10DropActionEPNS_7SessionE@Base 15.07.90
 _ZN7Akonadi11PasteHelper5pasteEPK9QMimeDataRKNS_10CollectionEbPNS_7SessionE@Base 15.07.90
 _ZN7Akonadi11PasteHelper8canPasteEPK9QMimeDataRKNS_10CollectionE@Base 15.07.90
 _ZN7Akonadi11SearchQuery7addTermERK7QStringRK8QVariantNS_10SearchTerm9ConditionE@Base 15.07.90
 _ZN7Akonadi11SearchQuery7addTermERKNS_10SearchTermE@Base 15.07.90
 _ZN7Akonadi11SearchQuery7setTermERKNS_10SearchTermE@Base 15.07.90
 _ZN7Akonadi11SearchQuery8fromJSONERK10QByteArray@Base 15.07.90
 _ZN7Akonadi11SearchQuery8setLimitEi@Base 15.07.90
 _ZN7Akonadi11SearchQueryC1ENS_10SearchTerm8RelationE@Base 15.07.90
 _ZN7Akonadi11SearchQueryC1ERKS0_@Base 15.07.90
 _ZN7Akonadi11SearchQueryC2ENS_10SearchTerm8RelationE@Base 15.07.90
 _ZN7Akonadi11SearchQueryC2ERKS0_@Base 15.07.90
 _ZN7Akonadi11SearchQueryD1Ev@Base 15.07.90
 _ZN7Akonadi11SearchQueryD2Ev@Base 15.07.90
 _ZN7Akonadi11SearchQueryaSERKS0_@Base 15.07.90
 _ZN7Akonadi11TagFetchJob10fetchScopeEv@Base 15.07.90
 _ZN7Akonadi11TagFetchJob11qt_metacallEN11QMetaObject4CallEiPPv@Base 15.07.90
 _ZN7Akonadi11TagFetchJob11qt_metacastEPKc@Base 15.07.90
 _ZN7Akonadi11TagFetchJob12tagsReceivedERK5QListINS_3TagEE@Base 15.07.90
 _ZN7Akonadi11TagFetchJob13setFetchScopeERKNS_13TagFetchScopeE@Base 15.07.90
 _ZN7Akonadi11TagFetchJob16doHandleResponseExRKNS_8Protocol7CommandE@Base 15.07.90
 _ZN7Akonadi11TagFetchJob16staticMetaObjectE@Base 15.07.90
 _ZN7Akonadi11TagFetchJob7doStartEv@Base 15.07.90
 _ZN7Akonadi11TagFetchJobC1EP7QObject@Base 15.07.90
 _ZN7Akonadi11TagFetchJobC1ERK5QListINS_3TagEEP7QObject@Base 15.07.90
 _ZN7Akonadi11TagFetchJobC1ERK5QListIxEP7QObject@Base 15.07.90
 _ZN7Akonadi11TagFetchJobC1ERKNS_3TagEP7QObject@Base 15.07.90
 _ZN7Akonadi11TagFetchJobC2EP7QObject@Base 15.07.90
 _ZN7Akonadi11TagFetchJobC2ERK5QListINS_3TagEEP7QObject@Base 15.07.90
 _ZN7Akonadi11TagFetchJobC2ERK5QListIxEP7QObject@Base 15.07.90
 _ZN7Akonadi11TagFetchJobC2ERKNS_3TagEP7QObject@Base 15.07.90
 _ZN7Akonadi11releaseLockEv@Base 15.07.90
 _ZN7Akonadi12AgentManager11qt_metacallEN11QMetaObject4CallEiPPv@Base 15.07.90
 _ZN7Akonadi12AgentManager11qt_metacastEPKc@Base 15.07.90
 _ZN7Akonadi12AgentManager11typeRemovedERKNS_9AgentTypeE@Base 15.07.90
 _ZN7Akonadi12AgentManager13instanceAddedERKNS_13AgentInstanceE@Base 15.07.90
 _ZN7Akonadi12AgentManager13instanceErrorERKNS_13AgentInstanceERK7QString@Base 15.07.90
 _ZN7Akonadi12AgentManager14instanceOnlineERKNS_13AgentInstanceEb@Base 15.07.90
 _ZN7Akonadi12AgentManager14removeInstanceERKNS_13AgentInstanceE@Base 15.07.90
 _ZN7Akonadi12AgentManager15instanceRemovedERKNS_13AgentInstanceE@Base 15.07.90
 _ZN7Akonadi12AgentManager15instanceWarningERKNS_13AgentInstanceERK7QString@Base 15.07.90
 _ZN7Akonadi12AgentManager16staticMetaObjectE@Base 15.07.90
 _ZN7Akonadi12AgentManager19instanceNameChangedERKNS_13AgentInstanceE@Base 15.07.90
 _ZN7Akonadi12AgentManager21instanceStatusChangedERKNS_13AgentInstanceE@Base 15.07.90
 _ZN7Akonadi12AgentManager21synchronizeCollectionERKNS_10CollectionE@Base 15.07.90
 _ZN7Akonadi12AgentManager21synchronizeCollectionERKNS_10CollectionEb@Base 15.07.90
 _ZN7Akonadi12AgentManager23instanceProgressChangedERKNS_13AgentInstanceE@Base 15.07.90
 _ZN7Akonadi12AgentManager4selfEv@Base 15.07.90
 _ZN7Akonadi12AgentManager9typeAddedERKNS_9AgentTypeE@Base 15.07.90
 _ZN7Akonadi12AgentManagerC1Ev@Base 15.07.90
 _ZN7Akonadi12AgentManagerC2Ev@Base 15.07.90
 _ZN7Akonadi12AgentManagerD0Ev@Base 15.07.90
 _ZN7Akonadi12AgentManagerD1Ev@Base 15.07.90
 _ZN7Akonadi12AgentManagerD2Ev@Base 15.07.90
 _ZN7Akonadi12ItemFetchJob10clearItemsEv@Base 15.07.90
 _ZN7Akonadi12ItemFetchJob10fetchScopeEv@Base 15.07.90
 _ZN7Akonadi12ItemFetchJob11qt_metacallEN11QMetaObject4CallEiPPv@Base 15.07.90
 _ZN7Akonadi12ItemFetchJob11qt_metacastEPKc@Base 15.07.90
 _ZN7Akonadi12ItemFetchJob13itemsReceivedERK7QVectorINS_4ItemEE@Base 15.07.90
 _ZN7Akonadi12ItemFetchJob13setCollectionERKNS_10CollectionE@Base 15.07.90
 _ZN7Akonadi12ItemFetchJob13setFetchScopeERKNS_14ItemFetchScopeE@Base 15.07.90
 _ZN7Akonadi12ItemFetchJob16doHandleResponseExRKNS_8Protocol7CommandE@Base 15.07.90
 _ZN7Akonadi12ItemFetchJob16staticMetaObjectE@Base 15.07.90
 _ZN7Akonadi12ItemFetchJob17setDeliveryOptionE6QFlagsINS0_14DeliveryOptionEE@Base 15.07.90
 _ZN7Akonadi12ItemFetchJob7doStartEv@Base 15.07.90
 _ZN7Akonadi12ItemFetchJobC1ERK5QListIxEP7QObject@Base 15.07.90
 _ZN7Akonadi12ItemFetchJobC1ERK7QVectorINS_4ItemEEP7QObject@Base 15.07.90
 _ZN7Akonadi12ItemFetchJobC1ERKNS_10CollectionEP7QObject@Base 15.07.90
 _ZN7Akonadi12ItemFetchJobC1ERKNS_3TagEP7QObject@Base 15.07.90
 _ZN7Akonadi12ItemFetchJobC1ERKNS_4ItemEP7QObject@Base 15.07.90
 _ZN7Akonadi12ItemFetchJobC2ERK5QListIxEP7QObject@Base 15.07.90
 _ZN7Akonadi12ItemFetchJobC2ERK7QVectorINS_4ItemEEP7QObject@Base 15.07.90
 _ZN7Akonadi12ItemFetchJobC2ERKNS_10CollectionEP7QObject@Base 15.07.90
 _ZN7Akonadi12ItemFetchJobC2ERKNS_3TagEP7QObject@Base 15.07.90
 _ZN7Akonadi12ItemFetchJobC2ERKNS_4ItemEP7QObject@Base 15.07.90
 _ZN7Akonadi12ItemFetchJobD0Ev@Base 15.07.90
 _ZN7Akonadi12ItemFetchJobD1Ev@Base 15.07.90
 _ZN7Akonadi12ItemFetchJobD2Ev@Base 15.07.90
 _ZN7Akonadi12PluginLoader13createForNameERK7QString@Base 15.07.90
 _ZN7Akonadi12PluginLoader4scanEv@Base 15.07.90
 _ZN7Akonadi12PluginLoader4selfEv@Base 15.07.90
 _ZN7Akonadi12PluginLoader5mSelfE@Base 15.07.90
 _ZN7Akonadi12PluginLoaderC1Ev@Base 15.07.90
 _ZN7Akonadi12PluginLoaderC2Ev@Base 15.07.90
 _ZN7Akonadi12PluginLoaderD1Ev@Base 15.07.90
 _ZN7Akonadi12PluginLoaderD2Ev@Base 15.07.90
 _ZN7Akonadi12TagAttribute11deserializeERK10QByteArray@Base 15.07.90
 _ZN7Akonadi12TagAttribute11setIconNameERK7QString@Base 15.07.90
 _ZN7Akonadi12TagAttribute11setPriorityEi@Base 15.07.90
 _ZN7Akonadi12TagAttribute11setShortcutERK7QString@Base 15.07.90
 _ZN7Akonadi12TagAttribute12setInToolbarEb@Base 15.07.90
 _ZN7Akonadi12TagAttribute12setTextColorERK6QColor@Base 15.07.90
 _ZN7Akonadi12TagAttribute14setDisplayNameERK7QString@Base 15.07.90
 _ZN7Akonadi12TagAttribute18setBackgroundColorERK6QColor@Base 15.07.90
 _ZN7Akonadi12TagAttribute7setFontERK7QString@Base 15.07.90
 _ZN7Akonadi12TagAttributeC1Ev@Base 15.07.90
 _ZN7Akonadi12TagAttributeC2Ev@Base 15.07.90
 _ZN7Akonadi12TagAttributeD0Ev@Base 15.07.90
 _ZN7Akonadi12TagAttributeD1Ev@Base 15.07.90
 _ZN7Akonadi12TagAttributeD2Ev@Base 15.07.90
 _ZN7Akonadi12TagCreateJob11qt_metacallEN11QMetaObject4CallEiPPv@Base 15.07.90
 _ZN7Akonadi12TagCreateJob11qt_metacastEPKc@Base 15.07.90
 _ZN7Akonadi12TagCreateJob16doHandleResponseExRKNS_8Protocol7CommandE@Base 15.07.90
 _ZN7Akonadi12TagCreateJob16staticMetaObjectE@Base 15.07.90
 _ZN7Akonadi12TagCreateJob18setMergeIfExistingEb@Base 15.07.90
 _ZN7Akonadi12TagCreateJob7doStartEv@Base 15.07.90
 _ZN7Akonadi12TagCreateJobC1ERKNS_3TagEP7QObject@Base 15.07.90
 _ZN7Akonadi12TagCreateJobC2ERKNS_3TagEP7QObject@Base 15.07.90
 _ZN7Akonadi12TagDeleteJob11qt_metacallEN11QMetaObject4CallEiPPv@Base 15.07.90
 _ZN7Akonadi12TagDeleteJob11qt_metacastEPKc@Base 15.07.90
 _ZN7Akonadi12TagDeleteJob16doHandleResponseExRKNS_8Protocol7CommandE@Base 15.07.90
 _ZN7Akonadi12TagDeleteJob16staticMetaObjectE@Base 15.07.90
 _ZN7Akonadi12TagDeleteJob7doStartEv@Base 15.07.90
 _ZN7Akonadi12TagDeleteJobC1ERK5QListINS_3TagEEP7QObject@Base 15.07.90
 _ZN7Akonadi12TagDeleteJobC1ERKNS_3TagEP7QObject@Base 15.07.90
 _ZN7Akonadi12TagDeleteJobC2ERK5QListINS_3TagEEP7QObject@Base 15.07.90
 _ZN7Akonadi12TagDeleteJobC2ERKNS_3TagEP7QObject@Base 15.07.90
 _ZN7Akonadi12TagModifyJob11qt_metacallEN11QMetaObject4CallEiPPv@Base 15.07.90
 _ZN7Akonadi12TagModifyJob11qt_metacastEPKc@Base 15.07.90
 _ZN7Akonadi12TagModifyJob16doHandleResponseExRKNS_8Protocol7CommandE@Base 15.07.90
 _ZN7Akonadi12TagModifyJob16staticMetaObjectE@Base 15.07.90
 _ZN7Akonadi12TagModifyJob7doStartEv@Base 15.07.90
 _ZN7Akonadi12TagModifyJobC1ERKNS_3TagEP7QObject@Base 15.07.90
 _ZN7Akonadi12TagModifyJobC2ERKNS_3TagEP7QObject@Base 15.07.90
 _ZN7Akonadi13AgentInstance11setIsOnlineEb@Base 15.07.90
 _ZN7Akonadi13AgentInstance11synchronizeEv@Base 15.07.90
 _ZN7Akonadi13AgentInstance25synchronizeCollectionTreeEv@Base 15.07.90
 _ZN7Akonadi13AgentInstance7setNameERK7QString@Base 15.07.90
 _ZN7Akonadi13AgentInstance9configureEP7QWidget@Base 15.07.90
 _ZN7Akonadi13AgentInstanceC1ERKS0_@Base 15.07.90
 _ZN7Akonadi13AgentInstanceC1Ev@Base 15.07.90
 _ZN7Akonadi13AgentInstanceC2ERKS0_@Base 15.07.90
 _ZN7Akonadi13AgentInstanceC2Ev@Base 15.07.90
 _ZN7Akonadi13AgentInstanceD1Ev@Base 15.07.90
 _ZN7Akonadi13AgentInstanceD2Ev@Base 15.07.90
 _ZN7Akonadi13AgentInstanceaSERKS0_@Base 15.07.90
 _ZN7Akonadi13ItemCreateJob11qt_metacallEN11QMetaObject4CallEiPPv@Base 15.07.90
 _ZN7Akonadi13ItemCreateJob11qt_metacastEPKc@Base 15.07.90
 _ZN7Akonadi13ItemCreateJob16doHandleResponseExRKNS_8Protocol7CommandE@Base 15.07.90
 _ZN7Akonadi13ItemCreateJob16staticMetaObjectE@Base 15.07.90
 _ZN7Akonadi13ItemCreateJob7doStartEv@Base 15.07.90
 _ZN7Akonadi13ItemCreateJob8setMergeE6QFlagsINS0_11MergeOptionEE@Base 15.07.90
 _ZN7Akonadi13ItemCreateJobC1ERKNS_4ItemERKNS_10CollectionEP7QObject@Base 15.07.90
 _ZN7Akonadi13ItemCreateJobC2ERKNS_4ItemERKNS_10CollectionEP7QObject@Base 15.07.90
 _ZN7Akonadi13ItemCreateJobD0Ev@Base 15.07.90
 _ZN7Akonadi13ItemCreateJobD1Ev@Base 15.07.90
 _ZN7Akonadi13ItemCreateJobD2Ev@Base 15.07.90
 _ZN7Akonadi13ItemDeleteJob11qt_metacallEN11QMetaObject4CallEiPPv@Base 15.07.90
 _ZN7Akonadi13ItemDeleteJob11qt_metacastEPKc@Base 15.07.90
 _ZN7Akonadi13ItemDeleteJob16doHandleResponseExRKNS_8Protocol7CommandE@Base 15.07.90
 _ZN7Akonadi13ItemDeleteJob16staticMetaObjectE@Base 15.07.90
 _ZN7Akonadi13ItemDeleteJob7doStartEv@Base 15.07.90
 _ZN7Akonadi13ItemDeleteJobC1ERK7QVectorINS_4ItemEEP7QObject@Base 15.07.90
 _ZN7Akonadi13ItemDeleteJobC1ERKNS_10CollectionEP7QObject@Base 15.07.90
 _ZN7Akonadi13ItemDeleteJobC1ERKNS_3TagEP7QObject@Base 15.07.90
 _ZN7Akonadi13ItemDeleteJobC1ERKNS_4ItemEP7QObject@Base 15.07.90
 _ZN7Akonadi13ItemDeleteJobC2ERK7QVectorINS_4ItemEEP7QObject@Base 15.07.90
 _ZN7Akonadi13ItemDeleteJobC2ERKNS_10CollectionEP7QObject@Base 15.07.90
 _ZN7Akonadi13ItemDeleteJobC2ERKNS_3TagEP7QObject@Base 15.07.90
 _ZN7Akonadi13ItemDeleteJobC2ERKNS_4ItemEP7QObject@Base 15.07.90
 _ZN7Akonadi13ItemDeleteJobD0Ev@Base 15.07.90
 _ZN7Akonadi13ItemDeleteJobD1Ev@Base 15.07.90
 _ZN7Akonadi13ItemDeleteJobD2Ev@Base 15.07.90
 _ZN7Akonadi13ItemModifyJob11qt_metacallEN11QMetaObject4CallEiPPv@Base 15.07.90
 _ZN7Akonadi13ItemModifyJob11qt_metacastEPKc@Base 15.07.90
 _ZN7Akonadi13ItemModifyJob12setUpdateGidEb@Base 15.07.90
 _ZN7Akonadi13ItemModifyJob16doHandleResponseExRKNS_8Protocol7CommandE@Base 15.07.90
 _ZN7Akonadi13ItemModifyJob16setIgnorePayloadEb@Base 15.07.90
 _ZN7Akonadi13ItemModifyJob16staticMetaObjectE@Base 15.07.90
 _ZN7Akonadi13ItemModifyJob20disableRevisionCheckEv@Base 15.07.90
 _ZN7Akonadi13ItemModifyJob32disableAutomaticConflictHandlingEv@Base 15.07.90
 _ZN7Akonadi13ItemModifyJob7doStartEv@Base 15.07.90
 _ZN7Akonadi13ItemModifyJobC1ERK7QVectorINS_4ItemEEP7QObject@Base 15.07.90
 _ZN7Akonadi13ItemModifyJobC1ERKNS_4ItemEP7QObject@Base 15.07.90
 _ZN7Akonadi13ItemModifyJobC2ERK7QVectorINS_4ItemEEP7QObject@Base 15.07.90
 _ZN7Akonadi13ItemModifyJobC2ERKNS_4ItemEP7QObject@Base 15.07.90
 _ZN7Akonadi13ItemModifyJobD0Ev@Base 15.07.90
 _ZN7Akonadi13ItemModifyJobD1Ev@Base 15.07.90
 _ZN7Akonadi13ItemModifyJobD2Ev@Base 15.07.90
 _ZN7Akonadi13ItemSearchJob10fetchScopeEv@Base 15.07.90
 _ZN7Akonadi13ItemSearchJob11qt_metacallEN11QMetaObject4CallEiPPv@Base 15.07.90
 _ZN7Akonadi13ItemSearchJob11qt_metacastEPKc@Base 15.07.90
 _ZN7Akonadi13ItemSearchJob12setMimeTypesERK11QStringList@Base 15.07.90
 _ZN7Akonadi13ItemSearchJob12setRecursiveEb@Base 15.07.90
 _ZN7Akonadi13ItemSearchJob13itemsReceivedERK7QVectorINS_4ItemEE@Base 15.07.90
 _ZN7Akonadi13ItemSearchJob13setFetchScopeERKNS_14ItemFetchScopeE@Base 15.07.90
 _ZN7Akonadi13ItemSearchJob16akonadiItemIdUriEv@Base 15.07.90
 _ZN7Akonadi13ItemSearchJob16doHandleResponseExRKNS_8Protocol7CommandE@Base 15.07.90
 _ZN7Akonadi13ItemSearchJob16staticMetaObjectE@Base 15.07.90
 _ZN7Akonadi13ItemSearchJob20setSearchCollectionsERK7QVectorINS_10CollectionEE@Base 15.07.90
 _ZN7Akonadi13ItemSearchJob22setRemoteSearchEnabledEb@Base 15.07.90
 _ZN7Akonadi13ItemSearchJob7doStartEv@Base 15.07.90
 _ZN7Akonadi13ItemSearchJob8setQueryERKNS_11SearchQueryE@Base 15.07.90
 _ZN7Akonadi13ItemSearchJobC1ERK7QStringP7QObject@Base 15.07.90
 _ZN7Akonadi13ItemSearchJobC1ERKNS_11SearchQueryEP7QObject@Base 15.07.90
 _ZN7Akonadi13ItemSearchJobC2ERK7QStringP7QObject@Base 15.07.90
 _ZN7Akonadi13ItemSearchJobC2ERKNS_11SearchQueryEP7QObject@Base 15.07.90
 _ZN7Akonadi13ItemSearchJobD0Ev@Base 15.07.90
 _ZN7Akonadi13ItemSearchJobD1Ev@Base 15.07.90
 _ZN7Akonadi13ItemSearchJobD2Ev@Base 15.07.90
 _ZN7Akonadi13ServerManager11qt_metacallEN11QMetaObject4CallEiPPv@Base 15.07.90
 _ZN7Akonadi13ServerManager11qt_metacastEPKc@Base 15.07.90
 _ZN7Akonadi13ServerManager11serviceNameENS0_11ServiceTypeE@Base 15.07.90
 _ZN7Akonadi13ServerManager12addNamespaceERK7QString@Base 15.07.90
 _ZN7Akonadi13ServerManager12stateChangedENS0_5StateE@Base 15.07.90
 _ZN7Akonadi13ServerManager16agentServiceNameENS0_16ServiceAgentTypeERK7QString@Base 15.07.90
 _ZN7Akonadi13ServerManager16staticMetaObjectE@Base 15.07.90
 _ZN7Akonadi13ServerManager18instanceIdentifierEv@Base 15.07.90
 _ZN7Akonadi13ServerManager18showSelfTestDialogEP7QWidget@Base 15.07.90
 _ZN7Akonadi13ServerManager21hasInstanceIdentifierEv@Base 15.07.90
 _ZN7Akonadi13ServerManager4selfEv@Base 15.07.90
 _ZN7Akonadi13ServerManager4stopEv@Base 15.07.90
 _ZN7Akonadi13ServerManager5startEv@Base 15.07.90
 _ZN7Akonadi13ServerManager5stateEv@Base 15.07.90
 _ZN7Akonadi13ServerManager7startedEv@Base 15.07.90
 _ZN7Akonadi13ServerManager7stoppedEv@Base 15.07.90
 _ZN7Akonadi13ServerManager9isRunningEv@Base 15.07.90
 _ZN7Akonadi13ServerManagerC1EPNS_20ServerManagerPrivateE@Base 15.07.90
 _ZN7Akonadi13ServerManagerC2EPNS_20ServerManagerPrivateE@Base 15.07.90
 _ZN7Akonadi13TagFetchScope14fetchAttributeERK10QByteArrayb@Base 15.07.90
 _ZN7Akonadi13TagFetchScope14setFetchIdOnlyEb@Base 15.07.90
 _ZN7Akonadi13TagFetchScopeC1ERKS0_@Base 15.07.90
 _ZN7Akonadi13TagFetchScopeC1Ev@Base 15.07.90
 _ZN7Akonadi13TagFetchScopeC2ERKS0_@Base 15.07.90
 _ZN7Akonadi13TagFetchScopeC2Ev@Base 15.07.90
 _ZN7Akonadi13TagFetchScopeD1Ev@Base 15.07.90
 _ZN7Akonadi13TagFetchScopeD2Ev@Base 15.07.90
 _ZN7Akonadi13TagFetchScopeaSERKS0_@Base 15.07.90
 _ZN7Akonadi13TrashSettings18getTrashCollectionERK7QString@Base 15.07.90
 _ZN7Akonadi13TrashSettings18setTrashCollectionERK7QStringRKNS_10CollectionE@Base 15.07.90
 _ZN7Akonadi14AgentTypeModel11qt_metacallEN11QMetaObject4CallEiPPv@Base 15.07.90
 _ZN7Akonadi14AgentTypeModel11qt_metacastEPKc@Base 15.07.90
 _ZN7Akonadi14AgentTypeModel16staticMetaObjectE@Base 15.07.90
 _ZN7Akonadi14AgentTypeModel7Private11typeRemovedERKNS_9AgentTypeE@Base 15.07.90
 _ZN7Akonadi14AgentTypeModel7Private9typeAddedERKNS_9AgentTypeE@Base 15.07.90
 _ZN7Akonadi14AgentTypeModelC1EP7QObject@Base 15.07.90
 _ZN7Akonadi14AgentTypeModelC2EP7QObject@Base 15.07.90
 _ZN7Akonadi14AgentTypeModelD0Ev@Base 15.07.90
 _ZN7Akonadi14AgentTypeModelD1Ev@Base 15.07.90
 _ZN7Akonadi14AgentTypeModelD2Ev@Base 15.07.90
 _ZN7Akonadi14ChangeRecorder10replayNextEv@Base 15.07.90
 _ZN7Akonadi14ChangeRecorder11qt_metacallEN11QMetaObject4CallEiPPv@Base 15.07.90
 _ZN7Akonadi14ChangeRecorder11qt_metacastEPKc@Base 15.07.90
 _ZN7Akonadi14ChangeRecorder12changesAddedEv@Base 15.07.90
 _ZN7Akonadi14ChangeRecorder15changeProcessedEv@Base 15.07.90
 _ZN7Akonadi14ChangeRecorder15nothingToReplayEv@Base 15.07.90
 _ZN7Akonadi14ChangeRecorder16staticMetaObjectE@Base 15.07.90
 _ZN7Akonadi14ChangeRecorder25setChangeRecordingEnabledEb@Base 15.07.90
 _ZN7Akonadi14ChangeRecorder9setConfigEP9QSettings@Base 15.07.90
 _ZN7Akonadi14ChangeRecorderC1EP7QObject@Base 15.07.90
 _ZN7Akonadi14ChangeRecorderC1EPNS_21ChangeRecorderPrivateEP7QObject@Base 15.07.90
 _ZN7Akonadi14ChangeRecorderC2EP7QObject@Base 15.07.90
 _ZN7Akonadi14ChangeRecorderC2EPNS_21ChangeRecorderPrivateEP7QObject@Base 15.07.90
 _ZN7Akonadi14ChangeRecorderD0Ev@Base 15.07.90
 _ZN7Akonadi14ChangeRecorderD1Ev@Base 15.07.90
 _ZN7Akonadi14ChangeRecorderD2Ev@Base 15.07.90
 _ZN7Akonadi14CollectionSync11qt_metacallEN11QMetaObject4CallEiPPv@Base 15.07.90
 _ZN7Akonadi14CollectionSync11qt_metacastEPKc@Base 15.07.90
 _ZN7Akonadi14CollectionSync13retrievalDoneEv@Base 15.07.90
 _ZN7Akonadi14CollectionSync16staticMetaObjectE@Base 15.07.90
 _ZN7Akonadi14CollectionSync19setKeepLocalChangesERK4QSetI10QByteArrayE@Base 15.07.90
 _ZN7Akonadi14CollectionSync19setStreamingEnabledEb@Base 15.07.90
 _ZN7Akonadi14CollectionSync20setRemoteCollectionsERK7QVectorINS_10CollectionEE@Base 15.07.90
 _ZN7Akonadi14CollectionSync20setRemoteCollectionsERK7QVectorINS_10CollectionEES5_@Base 15.07.90
 _ZN7Akonadi14CollectionSync24setHierarchicalRemoteIdsEb@Base 15.07.90
 _ZN7Akonadi14CollectionSync7doStartEv@Base 15.07.90
 _ZN7Akonadi14CollectionSync8rollbackEv@Base 15.07.90
 _ZN7Akonadi14CollectionSyncC1ERK7QStringP7QObject@Base 15.07.90
 _ZN7Akonadi14CollectionSyncC2ERK7QStringP7QObject@Base 15.07.90
 _ZN7Akonadi14CollectionSyncD0Ev@Base 15.07.90
 _ZN7Akonadi14CollectionSyncD1Ev@Base 15.07.90
 _ZN7Akonadi14CollectionSyncD2Ev@Base 15.07.90
 _ZN7Akonadi14ItemFetchScope11setFetchGidEb@Base 15.07.90
 _ZN7Akonadi14ItemFetchScope12setCacheOnlyEb@Base 15.07.90
 _ZN7Akonadi14ItemFetchScope12setFetchTagsEb@Base 15.07.90
 _ZN7Akonadi14ItemFetchScope13tagFetchScopeEv@Base 15.07.90
 _ZN7Akonadi14ItemFetchScope14fetchAttributeERK10QByteArrayb@Base 15.07.90
 _ZN7Akonadi14ItemFetchScope16fetchFullPayloadEb@Base 15.07.90
 _ZN7Akonadi14ItemFetchScope16fetchPayloadPartERK10QByteArrayb@Base 15.07.90
 _ZN7Akonadi14ItemFetchScope16setTagFetchScopeERKNS_13TagFetchScopeE@Base 15.07.90
 _ZN7Akonadi14ItemFetchScope17setFetchRelationsEb@Base 15.07.90
 _ZN7Akonadi14ItemFetchScope18fetchAllAttributesEb@Base 15.07.90
 _ZN7Akonadi14ItemFetchScope20setAncestorRetrievalENS0_17AncestorRetrievalE@Base 15.07.90
 _ZN7Akonadi14ItemFetchScope20setFetchChangedSinceERK9QDateTime@Base 15.07.90
 _ZN7Akonadi14ItemFetchScope24setFetchModificationTimeEb@Base 15.07.90
 _ZN7Akonadi14ItemFetchScope24setIgnoreRetrievalErrorsEb@Base 15.07.90
 _ZN7Akonadi14ItemFetchScope25setFetchVirtualReferencesEb@Base 15.07.90
 _ZN7Akonadi14ItemFetchScope28setFetchRemoteIdentificationEb@Base 15.07.90
 _ZN7Akonadi14ItemFetchScope33setCheckForCachedPayloadPartsOnlyEb@Base 15.07.90
 _ZN7Akonadi14ItemFetchScopeC1ERKS0_@Base 15.07.90
 _ZN7Akonadi14ItemFetchScopeC1Ev@Base 15.07.90
 _ZN7Akonadi14ItemFetchScopeC2ERKS0_@Base 15.07.90
 _ZN7Akonadi14ItemFetchScopeC2Ev@Base 15.07.90
 _ZN7Akonadi14ItemFetchScopeD1Ev@Base 15.07.90
 _ZN7Akonadi14ItemFetchScopeD2Ev@Base 15.07.90
 _ZN7Akonadi14ItemFetchScopeaSERKS0_@Base 15.07.90
 _ZN7Akonadi14ItemSerializer11deserializeERNS_4ItemERK10QByteArrayR9QIODevicei@Base 15.07.90
 _ZN7Akonadi14ItemSerializer11deserializeERNS_4ItemERK10QByteArrayS5_ib@Base 15.07.90
 _ZN7Akonadi14ItemSerializer14availablePartsERKNS_4ItemE@Base 15.07.90
 _ZN7Akonadi14ItemSerializer20overridePluginLookupEP7QObject@Base 15.07.90
 _ZN7Akonadi14ItemSerializer5applyERNS_4ItemERKS1_@Base 15.07.90
 _ZN7Akonadi14ItemSerializer5partsERKNS_4ItemE@Base 15.07.90
 _ZN7Akonadi14ItemSerializer7convertERKNS_4ItemEi@Base 15.07.90
 _ZN7Akonadi14ItemSerializer9serializeERKNS_4ItemERK10QByteArrayR9QIODeviceRi@Base 15.07.90
 _ZN7Akonadi14ItemSerializer9serializeERKNS_4ItemERK10QByteArrayRS4_Ri@Base 15.07.90
 _ZN7Akonadi14MonitorPrivate10slotNotifyERKNS_8Protocol18ChangeNotificationE@Base 15.07.90
 _ZN7Akonadi14MonitorPrivate11PurgeBuffer10buffersizeEv@Base 15.07.90
 _ZN7Akonadi14MonitorPrivate11PurgeBuffer5purgeEx@Base 15.07.90
 _ZN7Akonadi14MonitorPrivate11PurgeBuffer6bufferEx@Base 15.07.90
 _ZN7Akonadi14MonitorPrivate13dataAvailableEv@Base 15.07.90
 _ZN7Akonadi14MonitorPrivate13flushPipelineEv@Base 15.07.90
 _ZN7Akonadi14MonitorPrivate15invalidateCacheERKNS_10CollectionE@Base 15.07.90
 _ZN7Akonadi14MonitorPrivate16emitNotificationERKNS_8Protocol18ChangeNotificationE@Base 15.07.90
 _ZN7Akonadi14MonitorPrivate16invalidateCachesERKNS_8Protocol18ChangeNotificationE@Base 15.07.90
 _ZN7Akonadi14MonitorPrivate18invalidateTagCacheEx@Base 15.07.90
 _ZN7Akonadi14MonitorPrivate18serverStateChangedENS_13ServerManager5StateE@Base 15.07.90
 _ZN7Akonadi14MonitorPrivate19ensureDataAvailableERKNS_8Protocol18ChangeNotificationE@Base 15.07.90
 _ZN7Akonadi14MonitorPrivate19invalidateItemCacheEx@Base 15.07.90
 _ZN7Akonadi14MonitorPrivate20emitTagsNotificationERKNS_8Protocol18ChangeNotificationERK5QListINS_3TagEE@Base 15.07.90
 _ZN7Akonadi14MonitorPrivate20slotSessionDestroyedEP7QObject@Base 15.07.90
 _ZN7Akonadi14MonitorPrivate20translateAndCompressER6QQueueINS_8Protocol18ChangeNotificationEERKS3_@Base 15.07.90
 _ZN7Akonadi14MonitorPrivate21cleanOldNotificationsEv@Base 15.07.90
 _ZN7Akonadi14MonitorPrivate21dispatchNotificationsEv@Base 15.07.90
 _ZN7Akonadi14MonitorPrivate21emitItemsNotificationERKNS_8Protocol18ChangeNotificationERK7QVectorINS_4ItemEERKNS_10CollectionESC_@Base 15.07.90
 _ZN7Akonadi14MonitorPrivate23updatePendingStatisticsERKNS_8Protocol18ChangeNotificationE@Base 15.07.90
 _ZN7Akonadi14MonitorPrivate25emitRelationsNotificationERKNS_8Protocol18ChangeNotificationERK7QVectorINS_8RelationEE@Base 15.07.90
 _ZN7Akonadi14MonitorPrivate25invalidateCollectionCacheEx@Base 15.07.90
 _ZN7Akonadi14MonitorPrivate26emitCollectionNotificationERKNS_8Protocol18ChangeNotificationERKNS_10CollectionES7_S7_@Base 15.07.90
 _ZN7Akonadi14MonitorPrivate28connectToNotificationManagerEv@Base 15.07.90
 _ZN7Akonadi14MonitorPrivate29slotStatisticsChangedFinishedEP4KJob@Base 15.07.90
 _ZN7Akonadi14MonitorPrivate34notifyCollectionStatisticsWatchersExRK10QByteArray@Base 15.07.90
 _ZN7Akonadi14MonitorPrivate35slotFlushRecentlyChangedCollectionsEv@Base 15.07.90
 _ZN7Akonadi14MonitorPrivate3refEx@Base 15.07.90
 _ZN7Akonadi14MonitorPrivate4initEv@Base 15.07.90
 _ZN7Akonadi14MonitorPrivate5derefEx@Base 15.07.90
 _ZN7Akonadi14MonitorPrivateC1EPNS_37ChangeNotificationDependenciesFactoryEPNS_7MonitorE@Base 15.07.90
 _ZN7Akonadi14MonitorPrivateC2EPNS_37ChangeNotificationDependenciesFactoryEPNS_7MonitorE@Base 15.07.90
 _ZN7Akonadi14MonitorPrivateD0Ev@Base 4:15.08.0
 _ZN7Akonadi14MonitorPrivateD1Ev@Base 4:15.08.0
 _ZN7Akonadi14MonitorPrivateD2Ev@Base 4:15.08.0
 _ZN7Akonadi14PluginMetaDataC1ERK7QStringS3_S3_S3_@Base 15.07.90
 _ZN7Akonadi14PluginMetaDataC1Ev@Base 15.07.90
 _ZN7Akonadi14PluginMetaDataC2ERK7QStringS3_S3_S3_@Base 15.07.90
 _ZN7Akonadi14PluginMetaDataC2Ev@Base 15.07.90
 _ZN7Akonadi14SessionPrivate11doStartNextEv@Base 15.07.90
 _ZN7Akonadi14SessionPrivate11sendCommandExRKNS_8Protocol7CommandE@Base 15.07.90
 _ZN7Akonadi14SessionPrivate11socketErrorEN12QLocalSocket16LocalSocketErrorE@Base 15.07.90
 _ZN7Akonadi14SessionPrivate11socketErrorEN15QAbstractSocket11SocketErrorE@Base 15.07.90
 _ZN7Akonadi14SessionPrivate12dataReceivedEv@Base 15.07.90
 _ZN7Akonadi14SessionPrivate12jobDestroyedEP7QObject@Base 15.07.90
 _ZN7Akonadi14SessionPrivate13handleCommandExRKNS_8Protocol7CommandE@Base 15.07.90
 _ZN7Akonadi14SessionPrivate14connectionFileEv@Base 15.07.90
 _ZN7Akonadi14SessionPrivate14forceReconnectEv@Base 15.07.90
 _ZN7Akonadi14SessionPrivate15canPipelineNextEv@Base 15.07.90
 _ZN7Akonadi14SessionPrivate16jobWriteFinishedEPNS_3JobE@Base 15.07.90
 _ZN7Akonadi14SessionPrivate17setDefaultSessionEPNS_7SessionE@Base 15.07.90
 _ZN7Akonadi14SessionPrivate18serverStateChangedENS_13ServerManager5StateE@Base 15.07.90
 _ZN7Akonadi14SessionPrivate18socketDisconnectedEv@Base 15.07.90
 _ZN7Akonadi14SessionPrivate19itemRevisionChangedExii@Base 15.07.90
 _ZN7Akonadi14SessionPrivate20createDefaultSessionERK10QByteArray@Base 15.07.90
 _ZN7Akonadi14SessionPrivate4initERK10QByteArray@Base 15.07.90
 _ZN7Akonadi14SessionPrivate6addJobEPNS_3JobE@Base 15.07.90
 _ZN7Akonadi14SessionPrivate6endJobEPNS_3JobE@Base 15.07.90
 _ZN7Akonadi14SessionPrivate7jobDoneEP4KJob@Base 15.07.90
 _ZN7Akonadi14SessionPrivate7nextTagEv@Base 15.07.90
 _ZN7Akonadi14SessionPrivate8startJobEPNS_3JobE@Base 15.07.90
 _ZN7Akonadi14SessionPrivate9reconnectEv@Base 15.07.90
 _ZN7Akonadi14SessionPrivate9startNextEv@Base 15.07.90
 _ZN7Akonadi14SessionPrivateC1EPNS_7SessionE@Base 15.07.90
 _ZN7Akonadi14SessionPrivateC2EPNS_7SessionE@Base 15.07.90
 _ZN7Akonadi14SessionPrivateD0Ev@Base 15.07.90
 _ZN7Akonadi14SessionPrivateD1Ev@Base 15.07.90
 _ZN7Akonadi14SessionPrivateD2Ev@Base 15.07.90
 _ZN7Akonadi15AttributeEntity12addAttributeEPNS_9AttributeE@Base 15.07.90
 _ZN7Akonadi15AttributeEntity15clearAttributesEv@Base 15.07.90
 _ZN7Akonadi15AttributeEntity15removeAttributeERK10QByteArray@Base 15.07.90
 _ZN7Akonadi15AttributeEntityC1ERKS0_@Base 15.07.90
 _ZN7Akonadi15AttributeEntityC1Ev@Base 15.07.90
 _ZN7Akonadi15AttributeEntityC2ERKS0_@Base 15.07.90
 _ZN7Akonadi15AttributeEntityC2Ev@Base 15.07.90
 _ZN7Akonadi15AttributeEntityD0Ev@Base 15.07.90
 _ZN7Akonadi15AttributeEntityD1Ev@Base 15.07.90
 _ZN7Akonadi15AttributeEntityD2Ev@Base 15.07.90
 _ZN7Akonadi15AttributeEntityaSERKS0_@Base 15.07.90
 _ZN7Akonadi15CollectionModel11qt_metacallEN11QMetaObject4CallEiPPv@Base 15.07.90
 _ZN7Akonadi15CollectionModel11qt_metacastEPKc@Base 15.07.90
 _ZN7Akonadi15CollectionModel12dropMimeDataEPK9QMimeDataN2Qt10DropActionEiiRK11QModelIndex@Base 15.07.90
 _ZN7Akonadi15CollectionModel13setHeaderDataEiN2Qt11OrientationERK8QVarianti@Base 15.07.90
 _ZN7Akonadi15CollectionModel16staticMetaObjectE@Base 15.07.90
 _ZN7Akonadi15CollectionModel19includeUnsubscribedEb@Base 15.07.90
 _ZN7Akonadi15CollectionModel25fetchCollectionStatisticsEb@Base 15.07.90
 _ZN7Akonadi15CollectionModel7setDataERK11QModelIndexRK8QVarianti@Base 15.07.90
 _ZN7Akonadi15CollectionModelC1EP7QObject@Base 15.07.90
 _ZN7Akonadi15CollectionModelC1EPNS_22CollectionModelPrivateEP7QObject@Base 15.07.90
 _ZN7Akonadi15CollectionModelC2EP7QObject@Base 15.07.90
 _ZN7Akonadi15CollectionModelC2EPNS_22CollectionModelPrivateEP7QObject@Base 15.07.90
 _ZN7Akonadi15CollectionModelD0Ev@Base 15.07.90
 _ZN7Akonadi15CollectionModelD1Ev@Base 15.07.90
 _ZN7Akonadi15CollectionModelD2Ev@Base 15.07.90
 _ZN7Akonadi15EmailSearchTerm5toKeyENS0_16EmailSearchFieldE@Base 15.07.90
 _ZN7Akonadi15EmailSearchTerm7fromKeyERK7QString@Base 15.07.90
 _ZN7Akonadi15EmailSearchTermC1ENS0_16EmailSearchFieldERK8QVariantNS_10SearchTerm9ConditionE@Base 15.07.90
 _ZN7Akonadi15EmailSearchTermC2ENS0_16EmailSearchFieldERK8QVariantNS_10SearchTerm9ConditionE@Base 15.07.90
 _ZN7Akonadi15EntityCacheBase10setSessionEPNS_7SessionE@Base 15.07.90
 _ZN7Akonadi15EntityCacheBase11qt_metacallEN11QMetaObject4CallEiPPv@Base 15.07.90
 _ZN7Akonadi15EntityCacheBase11qt_metacastEPKc@Base 15.07.90
 _ZN7Akonadi15EntityCacheBase13dataAvailableEv@Base 15.07.90
 _ZN7Akonadi15EntityCacheBase16staticMetaObjectE@Base 15.07.90
 _ZN7Akonadi15EntityCacheBaseC1EPNS_7SessionEP7QObject@Base 15.07.90
 _ZN7Akonadi15EntityCacheBaseC2EPNS_7SessionEP7QObject@Base 15.07.90
 _ZN7Akonadi15EntityTreeModel10insertRowsEiiRK11QModelIndex@Base 15.07.90
 _ZN7Akonadi15EntityTreeModel10removeRowsEiiRK11QModelIndex@Base 15.07.90
 _ZN7Akonadi15EntityTreeModel11qt_metacallEN11QMetaObject4CallEiPPv@Base 15.07.90
 _ZN7Akonadi15EntityTreeModel11qt_metacastEPKc@Base 15.07.90
 _ZN7Akonadi15EntityTreeModel12dropMimeDataEPK9QMimeDataN2Qt10DropActionEiiRK11QModelIndex@Base 15.07.90
 _ZN7Akonadi15EntityTreeModel13clearAndResetEv@Base 15.07.90
 _ZN7Akonadi15EntityTreeModel13insertColumnsEiiRK11QModelIndex@Base 15.07.90
 _ZN7Akonadi15EntityTreeModel13removeColumnsEiiRK11QModelIndex@Base 15.07.90
 _ZN7Akonadi15EntityTreeModel13setListFilterENS_20CollectionFetchScope10ListFilterE@Base 15.07.90
 _ZN7Akonadi15EntityTreeModel16staticMetaObjectE@Base 15.07.90
 _ZN7Akonadi15EntityTreeModel17collectionFetchedEi@Base 15.07.90
 _ZN7Akonadi15EntityTreeModel19collectionPopulatedEx@Base 15.07.90
 _ZN7Akonadi15EntityTreeModel19modelIndexesForItemEPK18QAbstractItemModelRKNS_4ItemE@Base 15.07.90
 _ZN7Akonadi15EntityTreeModel21collectionTreeFetchedERK7QVectorINS_10CollectionEE@Base 15.07.90
 _ZN7Akonadi15EntityTreeModel21setShowSystemEntitiesEb@Base 15.07.90
 _ZN7Akonadi15EntityTreeModel22setCollectionMonitoredERKNS_10CollectionEb@Base 15.07.90
 _ZN7Akonadi15EntityTreeModel22setIncludeUnsubscribedEb@Base 15.07.90
 _ZN7Akonadi15EntityTreeModel23modelIndexForCollectionEPK18QAbstractItemModelRKNS_10CollectionE@Base 15.07.90
 _ZN7Akonadi15EntityTreeModel23setCollectionReferencedERKNS_10CollectionEb@Base 15.07.90
 _ZN7Akonadi15EntityTreeModel23setCollectionsMonitoredERK7QVectorINS_10CollectionEE@Base 15.07.90
 _ZN7Akonadi15EntityTreeModel24setIncludeRootCollectionEb@Base 15.07.90
 _ZN7Akonadi15EntityTreeModel25setItemPopulationStrategyENS0_22ItemPopulationStrategyE@Base 15.07.90
 _ZN7Akonadi15EntityTreeModel26setCollectionFetchStrategyENS0_23CollectionFetchStrategyE@Base 15.07.90
 _ZN7Akonadi15EntityTreeModel28setRootCollectionDisplayNameERK7QString@Base 15.07.90
 _ZN7Akonadi15EntityTreeModel7setDataERK11QModelIndexRK8QVarianti@Base 15.07.90
 _ZN7Akonadi15EntityTreeModel9fetchMoreERK11QModelIndex@Base 15.07.90
 _ZN7Akonadi15EntityTreeModelC1EPNS_14ChangeRecorderEP7QObject@Base 15.07.90
 _ZN7Akonadi15EntityTreeModelC1EPNS_14ChangeRecorderEPNS_22EntityTreeModelPrivateEP7QObject@Base 15.07.90
 _ZN7Akonadi15EntityTreeModelC2EPNS_14ChangeRecorderEP7QObject@Base 15.07.90
 _ZN7Akonadi15EntityTreeModelC2EPNS_14ChangeRecorderEPNS_22EntityTreeModelPrivateEP7QObject@Base 15.07.90
 _ZN7Akonadi15EntityTreeModelD0Ev@Base 15.07.90
 _ZN7Akonadi15EntityTreeModelD1Ev@Base 15.07.90
 _ZN7Akonadi15EntityTreeModelD2Ev@Base 15.07.90
 _ZN7Akonadi15MimeTypeChecker12isWantedItemERKNS_4ItemERK7QString@Base 15.07.90
 _ZN7Akonadi15MimeTypeChecker17addWantedMimeTypeERK7QString@Base 15.07.90
 _ZN7Akonadi15MimeTypeChecker18isWantedCollectionERKNS_10CollectionERK7QString@Base 15.07.90
 _ZN7Akonadi15MimeTypeChecker18setWantedMimeTypesERK11QStringList@Base 15.07.90
 _ZN7Akonadi15MimeTypeChecker20removeWantedMimeTypeERK7QString@Base 15.07.90
 _ZN7Akonadi15MimeTypeCheckerC1ERKS0_@Base 15.07.90
 _ZN7Akonadi15MimeTypeCheckerC1Ev@Base 15.07.90
 _ZN7Akonadi15MimeTypeCheckerC2ERKS0_@Base 15.07.90
 _ZN7Akonadi15MimeTypeCheckerC2Ev@Base 15.07.90
 _ZN7Akonadi15MimeTypeCheckerD1Ev@Base 15.07.90
 _ZN7Akonadi15MimeTypeCheckerD2Ev@Base 15.07.90
 _ZN7Akonadi15MimeTypeCheckeraSERKS0_@Base 15.07.90
 _ZN7Akonadi15ResourceScanJob11qt_metacallEN11QMetaObject4CallEiPPv@Base 15.07.90
 _ZN7Akonadi15ResourceScanJob11qt_metacastEPKc@Base 15.07.90
 _ZN7Akonadi15ResourceScanJob13setResourceIdERK7QString@Base 15.07.90
 _ZN7Akonadi15ResourceScanJob16staticMetaObjectE@Base 15.07.90
 _ZN7Akonadi15ResourceScanJob7Private11fetchResultEP4KJob@Base 15.07.90
 _ZN7Akonadi15ResourceScanJob7PrivateC1EP19KCoreConfigSkeletonPS0_@Base 15.07.90
 _ZN7Akonadi15ResourceScanJob7PrivateC2EP19KCoreConfigSkeletonPS0_@Base 15.07.90
 _ZN7Akonadi15ResourceScanJob7doStartEv@Base 15.07.90
 _ZN7Akonadi15ResourceScanJobC1ERK7QStringP19KCoreConfigSkeletonP7QObject@Base 15.07.90
 _ZN7Akonadi15ResourceScanJobC2ERK7QStringP19KCoreConfigSkeletonP7QObject@Base 15.07.90
 _ZN7Akonadi15ResourceScanJobD0Ev@Base 15.07.90
 _ZN7Akonadi15ResourceScanJobD1Ev@Base 15.07.90
 _ZN7Akonadi15ResourceScanJobD2Ev@Base 15.07.90
 _ZN7Akonadi15SearchCreateJob11qt_metacallEN11QMetaObject4CallEiPPv@Base 15.07.90
 _ZN7Akonadi15SearchCreateJob11qt_metacastEPKc@Base 15.07.90
 _ZN7Akonadi15SearchCreateJob12setRecursiveEb@Base 15.07.90
 _ZN7Akonadi15SearchCreateJob16doHandleResponseExRKNS_8Protocol7CommandE@Base 15.07.90
 _ZN7Akonadi15SearchCreateJob16staticMetaObjectE@Base 15.07.90
 _ZN7Akonadi15SearchCreateJob18setSearchMimeTypesERK11QStringList@Base 15.07.90
 _ZN7Akonadi15SearchCreateJob20setSearchCollectionsERK7QVectorINS_10CollectionEE@Base 15.07.90
 _ZN7Akonadi15SearchCreateJob22setRemoteSearchEnabledEb@Base 15.07.90
 _ZN7Akonadi15SearchCreateJob7doStartEv@Base 15.07.90
 _ZN7Akonadi15SearchCreateJobC1ERK7QStringRKNS_11SearchQueryEP7QObject@Base 15.07.90
 _ZN7Akonadi15SearchCreateJobC2ERK7QStringRKNS_11SearchQueryEP7QObject@Base 15.07.90
 _ZN7Akonadi15SearchCreateJobD0Ev@Base 15.07.90
 _ZN7Akonadi15SearchCreateJobD1Ev@Base 15.07.90
 _ZN7Akonadi15SearchCreateJobD2Ev@Base 15.07.90
 _ZN7Akonadi15SearchResultJob11qt_metacallEN11QMetaObject4CallEiPPv@Base 15.07.90
 _ZN7Akonadi15SearchResultJob11qt_metacastEPKc@Base 15.07.90
 _ZN7Akonadi15SearchResultJob11setSearchIdERK10QByteArray@Base 15.07.90
 _ZN7Akonadi15SearchResultJob16doHandleResponseExRKNS_8Protocol7CommandE@Base 15.07.90
 _ZN7Akonadi15SearchResultJob16staticMetaObjectE@Base 15.07.90
 _ZN7Akonadi15SearchResultJob7doStartEv@Base 15.07.90
 _ZN7Akonadi15SearchResultJob9setResultERK7QVectorI10QByteArrayE@Base 15.07.90
 _ZN7Akonadi15SearchResultJob9setResultERK7QVectorIxE@Base 15.07.90
 _ZN7Akonadi15SearchResultJob9setResultERKNS_7ImapSetE@Base 15.07.90
 _ZN7Akonadi15SearchResultJobC1ERK10QByteArrayRKNS_10CollectionEP7QObject@Base 15.07.90
 _ZN7Akonadi15SearchResultJobC2ERK10QByteArrayRKNS_10CollectionEP7QObject@Base 15.07.90
 _ZN7Akonadi15SearchResultJobD0Ev@Base 15.07.90
 _ZN7Akonadi15SearchResultJobD1Ev@Base 15.07.90
 _ZN7Akonadi15SearchResultJobD2Ev@Base 15.07.90
 _ZN7Akonadi15SubscriptionJob10slotResultEP4KJob@Base 15.07.90
 _ZN7Akonadi15SubscriptionJob11qt_metacallEN11QMetaObject4CallEiPPv@Base 15.07.90
 _ZN7Akonadi15SubscriptionJob11qt_metacastEPKc@Base 15.07.90
 _ZN7Akonadi15SubscriptionJob11unsubscribeERK7QVectorINS_10CollectionEE@Base 15.07.90
 _ZN7Akonadi15SubscriptionJob16staticMetaObjectE@Base 15.07.90
 _ZN7Akonadi15SubscriptionJob7doStartEv@Base 15.07.90
 _ZN7Akonadi15SubscriptionJob9subscribeERK7QVectorINS_10CollectionEE@Base 15.07.90
 _ZN7Akonadi15SubscriptionJobC1EP7QObject@Base 15.07.90
 _ZN7Akonadi15SubscriptionJobC2EP7QObject@Base 15.07.90
 _ZN7Akonadi15SubscriptionJobD0Ev@Base 15.07.90
 _ZN7Akonadi15SubscriptionJobD1Ev@Base 15.07.90
 _ZN7Akonadi15SubscriptionJobD2Ev@Base 15.07.90
 _ZN7Akonadi15TrashRestoreJob11qt_metacallEN11QMetaObject4CallEiPPv@Base 15.07.90
 _ZN7Akonadi15TrashRestoreJob11qt_metacastEPKc@Base 15.07.90
 _ZN7Akonadi15TrashRestoreJob16staticMetaObjectE@Base 15.07.90
 _ZN7Akonadi15TrashRestoreJob19setTargetCollectionERKNS_10CollectionE@Base 15.07.90
 _ZN7Akonadi15TrashRestoreJob22TrashRestoreJobPrivate12selectResultEP4KJob@Base 15.07.90
 _ZN7Akonadi15TrashRestoreJob22TrashRestoreJobPrivate13itemsReceivedERK7QVectorINS_4ItemEE@Base 15.07.90
 _ZN7Akonadi15TrashRestoreJob22TrashRestoreJobPrivate15removeAttributeERK7QVectorINS_10CollectionEE@Base 15.07.90
 _ZN7Akonadi15TrashRestoreJob22TrashRestoreJobPrivate15removeAttributeERK7QVectorINS_4ItemEE@Base 15.07.90
 _ZN7Akonadi15TrashRestoreJob22TrashRestoreJobPrivate19collectionsReceivedERK7QVectorINS_10CollectionEE@Base 15.07.90
 _ZN7Akonadi15TrashRestoreJob22TrashRestoreJobPrivate23targetCollectionFetchedEP4KJob@Base 15.07.90
 _ZN7Akonadi15TrashRestoreJob7doStartEv@Base 15.07.90
 _ZN7Akonadi15TrashRestoreJobC1ERK7QVectorINS_4ItemEEP7QObject@Base 15.07.90
 _ZN7Akonadi15TrashRestoreJobC1ERKNS_10CollectionEP7QObject@Base 15.07.90
 _ZN7Akonadi15TrashRestoreJobC1ERKNS_4ItemEP7QObject@Base 15.07.90
 _ZN7Akonadi15TrashRestoreJobC2ERK7QVectorINS_4ItemEEP7QObject@Base 15.07.90
 _ZN7Akonadi15TrashRestoreJobC2ERKNS_10CollectionEP7QObject@Base 15.07.90
 _ZN7Akonadi15TrashRestoreJobC2ERKNS_4ItemEP7QObject@Base 15.07.90
 _ZN7Akonadi15TrashRestoreJobD0Ev@Base 15.07.90
 _ZN7Akonadi15TrashRestoreJobD1Ev@Base 15.07.90
 _ZN7Akonadi15TrashRestoreJobD2Ev@Base 15.07.90
 _ZN7Akonadi16AttributeFactory15createAttributeERK10QByteArray@Base 15.07.90
 _ZN7Akonadi16AttributeFactory17registerAttributeEPNS_9AttributeE@Base 15.07.90
 (optional=templinst)_ZN7Akonadi16AttributeFactory17registerAttributeINS_26SpecialCollectionAttributeEEEvv@Base 15.07.90
 _ZN7Akonadi16AttributeFactory4selfEv@Base 15.07.90
 _ZN7Akonadi16AttributeFactoryC1Ev@Base 15.07.90
 _ZN7Akonadi16AttributeFactoryC2Ev@Base 15.07.90
 _ZN7Akonadi16AttributeFactoryD1Ev@Base 15.07.90
 _ZN7Akonadi16AttributeFactoryD2Ev@Base 15.07.90
 _ZN7Akonadi16PayloadExceptionD0Ev@Base 15.07.90
 _ZN7Akonadi16PayloadExceptionD1Ev@Base 15.07.90
 _ZN7Akonadi16PayloadExceptionD2Ev@Base 15.07.90
 _ZN7Akonadi16RelationFetchJob11qt_metacallEN11QMetaObject4CallEiPPv@Base 15.07.90
 _ZN7Akonadi16RelationFetchJob11qt_metacastEPKc@Base 15.07.90
 _ZN7Akonadi16RelationFetchJob11setResourceERK7QString@Base 15.07.90
 _ZN7Akonadi16RelationFetchJob16doHandleResponseExRKNS_8Protocol7CommandE@Base 15.07.90
 _ZN7Akonadi16RelationFetchJob16staticMetaObjectE@Base 15.07.90
 _ZN7Akonadi16RelationFetchJob17relationsReceivedERK7QVectorINS_8RelationEE@Base 15.07.90
 _ZN7Akonadi16RelationFetchJob7doStartEv@Base 15.07.90
 _ZN7Akonadi16RelationFetchJobC1ERK7QVectorI10QByteArrayEP7QObject@Base 15.07.90
 _ZN7Akonadi16RelationFetchJobC1ERKNS_8RelationEP7QObject@Base 15.07.90
 _ZN7Akonadi16RelationFetchJobC2ERK7QVectorI10QByteArrayEP7QObject@Base 15.07.90
 _ZN7Akonadi16RelationFetchJobC2ERKNS_8RelationEP7QObject@Base 15.07.90
 _ZN7Akonadi16TypePluginLoader20overridePluginLookupEP7QObject@Base 15.07.90
 _ZN7Akonadi16TypePluginLoader24defaultObjectForMimeTypeERK7QString@Base 15.07.90
 _ZN7Akonadi16TypePluginLoader24defaultPluginForMimeTypeERK7QString@Base 15.07.90
 _ZN7Akonadi16TypePluginLoader25objectForMimeTypeAndClassERK7QStringRK7QVectorIiE6QFlagsINS0_6OptionEE@Base 15.07.90
 _ZN7Akonadi16TypePluginLoader25pluginForMimeTypeAndClassERK7QStringRK7QVectorIiE6QFlagsINS0_6OptionEE@Base 15.07.90
 _ZN7Akonadi17CollectionCopyJob11qt_metacallEN11QMetaObject4CallEiPPv@Base 15.07.90
 _ZN7Akonadi17CollectionCopyJob11qt_metacastEPKc@Base 15.07.90
 _ZN7Akonadi17CollectionCopyJob16doHandleResponseExRKNS_8Protocol7CommandE@Base 15.07.90
 _ZN7Akonadi17CollectionCopyJob16staticMetaObjectE@Base 15.07.90
 _ZN7Akonadi17CollectionCopyJob7doStartEv@Base 15.07.90
 _ZN7Akonadi17CollectionCopyJobC1ERKNS_10CollectionES3_P7QObject@Base 15.07.90
 _ZN7Akonadi17CollectionCopyJobC2ERKNS_10CollectionES3_P7QObject@Base 15.07.90
 _ZN7Akonadi17CollectionCopyJobD0Ev@Base 15.07.90
 _ZN7Akonadi17CollectionCopyJobD1Ev@Base 15.07.90
 _ZN7Akonadi17CollectionCopyJobD2Ev@Base 15.07.90
 _ZN7Akonadi17CollectionMoveJob11qt_metacallEN11QMetaObject4CallEiPPv@Base 15.07.90
 _ZN7Akonadi17CollectionMoveJob11qt_metacastEPKc@Base 15.07.90
 _ZN7Akonadi17CollectionMoveJob16doHandleResponseExRKNS_8Protocol7CommandE@Base 15.07.90
 _ZN7Akonadi17CollectionMoveJob16staticMetaObjectE@Base 15.07.90
 _ZN7Akonadi17CollectionMoveJob7doStartEv@Base 15.07.90
 _ZN7Akonadi17CollectionMoveJobC1ERKNS_10CollectionES3_P7QObject@Base 15.07.90
 _ZN7Akonadi17CollectionMoveJobC2ERKNS_10CollectionES3_P7QObject@Base 15.07.90
 _ZN7Akonadi17ContactSearchTerm5toKeyENS0_18ContactSearchFieldE@Base 15.07.90
 _ZN7Akonadi17ContactSearchTerm7fromKeyERK7QString@Base 15.07.90
 _ZN7Akonadi17ContactSearchTermC1ENS0_18ContactSearchFieldERK8QVariantNS_10SearchTerm9ConditionE@Base 15.07.90
 _ZN7Akonadi17ContactSearchTermC2ENS0_18ContactSearchFieldERK8QVariantNS_10SearchTerm9ConditionE@Base 15.07.90
 _ZN7Akonadi17RelationCreateJob11qt_metacallEN11QMetaObject4CallEiPPv@Base 15.07.90
 _ZN7Akonadi17RelationCreateJob11qt_metacastEPKc@Base 15.07.90
 _ZN7Akonadi17RelationCreateJob16doHandleResponseExRKNS_8Protocol7CommandE@Base 15.07.90
 _ZN7Akonadi17RelationCreateJob16staticMetaObjectE@Base 15.07.90
 _ZN7Akonadi17RelationCreateJob7doStartEv@Base 15.07.90
 _ZN7Akonadi17RelationCreateJobC1ERKNS_8RelationEP7QObject@Base 15.07.90
 _ZN7Akonadi17RelationCreateJobC2ERKNS_8RelationEP7QObject@Base 15.07.90
 _ZN7Akonadi17RelationDeleteJob11qt_metacallEN11QMetaObject4CallEiPPv@Base 15.07.90
 _ZN7Akonadi17RelationDeleteJob11qt_metacastEPKc@Base 15.07.90
 _ZN7Akonadi17RelationDeleteJob16doHandleResponseExRKNS_8Protocol7CommandE@Base 15.07.90
 _ZN7Akonadi17RelationDeleteJob16staticMetaObjectE@Base 15.07.90
 _ZN7Akonadi17RelationDeleteJob7doStartEv@Base 15.07.90
 _ZN7Akonadi17RelationDeleteJobC1ERKNS_8RelationEP7QObject@Base 15.07.90
 _ZN7Akonadi17RelationDeleteJobC2ERKNS_8RelationEP7QObject@Base 15.07.90
 _ZN7Akonadi17ResourceSelectJob11qt_metacallEN11QMetaObject4CallEiPPv@Base 15.07.90
 _ZN7Akonadi17ResourceSelectJob11qt_metacastEPKc@Base 15.07.90
 _ZN7Akonadi17ResourceSelectJob16doHandleResponseExRKNS_8Protocol7CommandE@Base 15.07.90
 _ZN7Akonadi17ResourceSelectJob16staticMetaObjectE@Base 15.07.90
 _ZN7Akonadi17ResourceSelectJob7doStartEv@Base 15.07.90
 _ZN7Akonadi17ResourceSelectJobC1ERK7QStringP7QObject@Base 15.07.90
 _ZN7Akonadi17ResourceSelectJobC2ERK7QStringP7QObject@Base 15.07.90
 _ZN7Akonadi17SubscriptionModel11qt_metacallEN11QMetaObject4CallEiPPv@Base 15.07.90
 _ZN7Akonadi17SubscriptionModel11qt_metacastEPKc@Base 15.07.90
 _ZN7Akonadi17SubscriptionModel16staticMetaObjectE@Base 15.07.90
 _ZN7Akonadi17SubscriptionModel20showHiddenCollectionEb@Base 15.07.90
 _ZN7Akonadi17SubscriptionModel6loadedEv@Base 15.07.90
 _ZN7Akonadi17SubscriptionModel7setDataERK11QModelIndexRK8QVarianti@Base 15.07.90
 _ZN7Akonadi17SubscriptionModelC1EP7QObject@Base 15.07.90
 _ZN7Akonadi17SubscriptionModelC2EP7QObject@Base 15.07.90
 _ZN7Akonadi17SubscriptionModelD0Ev@Base 15.07.90
 _ZN7Akonadi17SubscriptionModelD1Ev@Base 15.07.90
 _ZN7Akonadi17SubscriptionModelD2Ev@Base 15.07.90
 _ZN7Akonadi18AgentInstanceModel11qt_metacallEN11QMetaObject4CallEiPPv@Base 15.07.90
 _ZN7Akonadi18AgentInstanceModel11qt_metacastEPKc@Base 15.07.90
 _ZN7Akonadi18AgentInstanceModel16staticMetaObjectE@Base 15.07.90
 _ZN7Akonadi18AgentInstanceModel7Private13instanceAddedERKNS_13AgentInstanceE@Base 15.07.90
 _ZN7Akonadi18AgentInstanceModel7Private15instanceChangedERKNS_13AgentInstanceE@Base 15.07.90
 _ZN7Akonadi18AgentInstanceModel7Private15instanceRemovedERKNS_13AgentInstanceE@Base 15.07.90
 _ZN7Akonadi18AgentInstanceModel7setDataERK11QModelIndexRK8QVarianti@Base 15.07.90
 _ZN7Akonadi18AgentInstanceModelC1EP7QObject@Base 15.07.90
 _ZN7Akonadi18AgentInstanceModelC2EP7QObject@Base 15.07.90
 _ZN7Akonadi18AgentInstanceModelD0Ev@Base 15.07.90
 _ZN7Akonadi18AgentInstanceModelD1Ev@Base 15.07.90
 _ZN7Akonadi18AgentInstanceModelD2Ev@Base 15.07.90
 _ZN7Akonadi18CollectionFetchJob10fetchScopeEv@Base 15.07.90
 _ZN7Akonadi18CollectionFetchJob10slotResultEP4KJob@Base 15.07.90
 _ZN7Akonadi18CollectionFetchJob11qt_metacallEN11QMetaObject4CallEiPPv@Base 15.07.90
 _ZN7Akonadi18CollectionFetchJob11qt_metacastEPKc@Base 15.07.90
 _ZN7Akonadi18CollectionFetchJob13setFetchScopeERKNS_20CollectionFetchScopeE@Base 15.07.90
 _ZN7Akonadi18CollectionFetchJob16doHandleResponseExRKNS_8Protocol7CommandE@Base 15.07.90
 _ZN7Akonadi18CollectionFetchJob16staticMetaObjectE@Base 15.07.90
 _ZN7Akonadi18CollectionFetchJob19collectionsReceivedERK7QVectorINS_10CollectionEE@Base 15.07.90
 _ZN7Akonadi18CollectionFetchJob7doStartEv@Base 15.07.90
 _ZN7Akonadi18CollectionFetchJobC1ERK5QListIxENS0_4TypeEP7QObject@Base 15.07.90
 _ZN7Akonadi18CollectionFetchJobC1ERK7QVectorINS_10CollectionEENS0_4TypeEP7QObject@Base 15.07.90
 _ZN7Akonadi18CollectionFetchJobC1ERK7QVectorINS_10CollectionEEP7QObject@Base 15.07.90
 _ZN7Akonadi18CollectionFetchJobC1ERKNS_10CollectionENS0_4TypeEP7QObject@Base 15.07.90
 _ZN7Akonadi18CollectionFetchJobC2ERK5QListIxENS0_4TypeEP7QObject@Base 15.07.90
 _ZN7Akonadi18CollectionFetchJobC2ERK7QVectorINS_10CollectionEENS0_4TypeEP7QObject@Base 15.07.90
 _ZN7Akonadi18CollectionFetchJobC2ERK7QVectorINS_10CollectionEEP7QObject@Base 15.07.90
 _ZN7Akonadi18CollectionFetchJobC2ERKNS_10CollectionENS0_4TypeEP7QObject@Base 15.07.90
 _ZN7Akonadi18CollectionFetchJobD0Ev@Base 15.07.90
 _ZN7Akonadi18CollectionFetchJobD1Ev@Base 15.07.90
 _ZN7Akonadi18CollectionFetchJobD2Ev@Base 15.07.90
 _ZN7Akonadi18DefaultResourceJob10slotResultEP4KJob@Base 15.07.90
 _ZN7Akonadi18DefaultResourceJob11qt_metacallEN11QMetaObject4CallEiPPv@Base 15.07.90
 _ZN7Akonadi18DefaultResourceJob11qt_metacastEPKc@Base 15.07.90
 _ZN7Akonadi18DefaultResourceJob16staticMetaObjectE@Base 15.07.90
 _ZN7Akonadi18DefaultResourceJob17setIconForTypeMapERK4QMapI10QByteArray7QStringE@Base 15.07.90
 _ZN7Akonadi18DefaultResourceJob17setNameForTypeMapERK4QMapI10QByteArray7QStringE@Base 15.07.90
 _ZN7Akonadi18DefaultResourceJob22setDefaultResourceTypeERK7QString@Base 15.07.90
 _ZN7Akonadi18DefaultResourceJob25setDefaultResourceOptionsERK4QMapI7QString8QVariantE@Base 15.07.90
 _ZN7Akonadi18DefaultResourceJob7doStartEv@Base 15.07.90
 _ZN7Akonadi18DefaultResourceJob8setTypesERK5QListI10QByteArrayE@Base 15.07.90
 _ZN7Akonadi18DefaultResourceJobC1EP19KCoreConfigSkeletonP7QObject@Base 15.07.90
 _ZN7Akonadi18DefaultResourceJobC2EP19KCoreConfigSkeletonP7QObject@Base 15.07.90
 _ZN7Akonadi18DefaultResourceJobD0Ev@Base 15.07.90
 _ZN7Akonadi18DefaultResourceJobD1Ev@Base 15.07.90
 _ZN7Akonadi18DefaultResourceJobD2Ev@Base 15.07.90
 _ZN7Akonadi18InvalidateCacheJob11qt_metacallEN11QMetaObject4CallEiPPv@Base 15.07.90
 _ZN7Akonadi18InvalidateCacheJob11qt_metacastEPKc@Base 15.07.90
 _ZN7Akonadi18InvalidateCacheJob16staticMetaObjectE@Base 15.07.90
 _ZN7Akonadi18InvalidateCacheJob7doStartEv@Base 15.07.90
 _ZN7Akonadi18InvalidateCacheJobC1ERKNS_10CollectionEP7QObject@Base 15.07.90
 _ZN7Akonadi18InvalidateCacheJobC2ERKNS_10CollectionEP7QObject@Base 15.07.90
 _ZN7Akonadi18NotificationSource10setSessionERK10QByteArray@Base 15.07.90
 _ZN7Akonadi18NotificationSource11qt_metacallEN11QMetaObject4CallEiPPv@Base 15.07.90
 _ZN7Akonadi18NotificationSource11qt_metacastEPKc@Base 15.07.90
 _ZN7Akonadi18NotificationSource12setExclusiveEb@Base 15.07.90
 _ZN7Akonadi18NotificationSource15setAllMonitoredEb@Base 15.07.90
 _ZN7Akonadi18NotificationSource15setMonitoredTagExb@Base 15.07.90
 _ZN7Akonadi18NotificationSource16setMonitoredItemExb@Base 15.07.90
 _ZN7Akonadi18NotificationSource16setMonitoredTypeENS_8Protocol18ChangeNotification4TypeEb@Base 15.07.90
 _ZN7Akonadi18NotificationSource16staticMetaObjectE@Base 15.07.90
 _ZN7Akonadi18NotificationSource17setIgnoredSessionERK10QByteArrayb@Base 15.07.90
 _ZN7Akonadi18NotificationSource20setMonitoredMimeTypeERK7QStringb@Base 15.07.90
 _ZN7Akonadi18NotificationSource20setMonitoredResourceERK10QByteArrayb@Base 15.07.90
 _ZN7Akonadi18NotificationSource22setMonitoredCollectionExb@Base 15.07.90
 _ZN7Akonadi18NotificationSourceC1EP7QObject@Base 15.07.90
 _ZN7Akonadi18NotificationSourceC2EP7QObject@Base 15.07.90
 _ZN7Akonadi18NotificationSourceD0Ev@Base 15.07.90
 _ZN7Akonadi18NotificationSourceD1Ev@Base 15.07.90
 _ZN7Akonadi18NotificationSourceD2Ev@Base 15.07.90
 _ZN7Akonadi18SpecialCollections11qt_metacallEN11QMetaObject4CallEiPPv@Base 15.07.90
 _ZN7Akonadi18SpecialCollections11qt_metacastEPKc@Base 15.07.90
 _ZN7Akonadi18SpecialCollections16staticMetaObjectE@Base 15.07.90
 _ZN7Akonadi18SpecialCollections18collectionsChangedERKNS_13AgentInstanceE@Base 15.07.90
 _ZN7Akonadi18SpecialCollections18registerCollectionERK10QByteArrayRKNS_10CollectionE@Base 15.07.90
 _ZN7Akonadi18SpecialCollections20unregisterCollectionERKNS_10CollectionE@Base 15.07.90
 _ZN7Akonadi18SpecialCollections22unsetSpecialCollectionERKNS_10CollectionE@Base 15.07.90
 _ZN7Akonadi18SpecialCollections24setSpecialCollectionTypeERK10QByteArrayRKNS_10CollectionE@Base 15.07.90
 _ZN7Akonadi18SpecialCollections25defaultCollectionsChangedEv@Base 15.07.90
 _ZN7Akonadi18SpecialCollectionsC1EP19KCoreConfigSkeletonP7QObject@Base 15.07.90
 _ZN7Akonadi18SpecialCollectionsC2EP19KCoreConfigSkeletonP7QObject@Base 15.07.90
 _ZN7Akonadi18SpecialCollectionsD0Ev@Base 15.07.90
 _ZN7Akonadi18SpecialCollectionsD1Ev@Base 15.07.90
 _ZN7Akonadi18SpecialCollectionsD2Ev@Base 15.07.90
 _ZN7Akonadi19CollectionCreateJob11qt_metacallEN11QMetaObject4CallEiPPv@Base 15.07.90
 _ZN7Akonadi19CollectionCreateJob11qt_metacastEPKc@Base 15.07.90
 _ZN7Akonadi19CollectionCreateJob16doHandleResponseExRKNS_8Protocol7CommandE@Base 15.07.90
 _ZN7Akonadi19CollectionCreateJob16staticMetaObjectE@Base 15.07.90
 _ZN7Akonadi19CollectionCreateJob7doStartEv@Base 15.07.90
 _ZN7Akonadi19CollectionCreateJobC1ERKNS_10CollectionEP7QObject@Base 15.07.90
 _ZN7Akonadi19CollectionCreateJobC2ERKNS_10CollectionEP7QObject@Base 15.07.90
 _ZN7Akonadi19CollectionCreateJobD0Ev@Base 15.07.90
 _ZN7Akonadi19CollectionCreateJobD1Ev@Base 15.07.90
 _ZN7Akonadi19CollectionCreateJobD2Ev@Base 15.07.90
 _ZN7Akonadi19CollectionDeleteJob11qt_metacallEN11QMetaObject4CallEiPPv@Base 15.07.90
 _ZN7Akonadi19CollectionDeleteJob11qt_metacastEPKc@Base 15.07.90
 _ZN7Akonadi19CollectionDeleteJob16doHandleResponseExRKNS_8Protocol7CommandE@Base 15.07.90
 _ZN7Akonadi19CollectionDeleteJob16staticMetaObjectE@Base 15.07.90
 _ZN7Akonadi19CollectionDeleteJob7doStartEv@Base 15.07.90
 _ZN7Akonadi19CollectionDeleteJobC1ERKNS_10CollectionEP7QObject@Base 15.07.90
 _ZN7Akonadi19CollectionDeleteJobC2ERKNS_10CollectionEP7QObject@Base 15.07.90
 _ZN7Akonadi19CollectionDeleteJobD0Ev@Base 15.07.90
 _ZN7Akonadi19CollectionDeleteJobD1Ev@Base 15.07.90
 _ZN7Akonadi19CollectionDeleteJobD2Ev@Base 15.07.90
 _ZN7Akonadi19CollectionModifyJob11qt_metacallEN11QMetaObject4CallEiPPv@Base 15.07.90
 _ZN7Akonadi19CollectionModifyJob11qt_metacastEPKc@Base 15.07.90
 _ZN7Akonadi19CollectionModifyJob16doHandleResponseExRKNS_8Protocol7CommandE@Base 15.07.90
 _ZN7Akonadi19CollectionModifyJob16staticMetaObjectE@Base 15.07.90
 _ZN7Akonadi19CollectionModifyJob7doStartEv@Base 15.07.90
 _ZN7Akonadi19CollectionModifyJobC1ERKNS_10CollectionEP7QObject@Base 15.07.90
 _ZN7Akonadi19CollectionModifyJobC2ERKNS_10CollectionEP7QObject@Base 15.07.90
 _ZN7Akonadi19CollectionModifyJobD0Ev@Base 15.07.90
 _ZN7Akonadi19CollectionModifyJobD1Ev@Base 15.07.90
 _ZN7Akonadi19CollectionModifyJobD2Ev@Base 15.07.90
 _ZN7Akonadi19CollectionSelectJob11qt_metacallEN11QMetaObject4CallEiPPv@Base 15.07.90
 _ZN7Akonadi19CollectionSelectJob11qt_metacastEPKc@Base 15.07.90
 _ZN7Akonadi19CollectionSelectJob16doHandleResponseExRKNS_8Protocol7CommandE@Base 15.07.90
 _ZN7Akonadi19CollectionSelectJob16staticMetaObjectE@Base 15.07.90
 _ZN7Akonadi19CollectionSelectJob7doStartEv@Base 15.07.90
 _ZN7Akonadi19CollectionSelectJobC1ERKNS_10CollectionEP7QObject@Base 15.07.90
 _ZN7Akonadi19CollectionSelectJobC2ERKNS_10CollectionEP7QObject@Base 15.07.90
 _ZN7Akonadi19CollectionSelectJobD0Ev@Base 15.07.90
 _ZN7Akonadi19CollectionSelectJobD1Ev@Base 15.07.90
 _ZN7Akonadi19CollectionSelectJobD2Ev@Base 15.07.90
 _ZN7Akonadi19IncidenceSearchTerm5toKeyENS0_20IncidenceSearchFieldE@Base 15.07.90
 _ZN7Akonadi19IncidenceSearchTerm7fromKeyERK7QString@Base 15.07.90
 _ZN7Akonadi19IncidenceSearchTermC1ENS0_20IncidenceSearchFieldERK8QVariantNS_10SearchTerm9ConditionE@Base 15.07.90
 _ZN7Akonadi19IncidenceSearchTermC2ENS0_20IncidenceSearchFieldERK8QVariantNS_10SearchTerm9ConditionE@Base 15.07.90
 _ZN7Akonadi19SelectionProxyModel11qt_metacallEN11QMetaObject4CallEiPPv@Base 15.07.90
 _ZN7Akonadi19SelectionProxyModel11qt_metacastEPKc@Base 15.07.90
 _ZN7Akonadi19SelectionProxyModel16staticMetaObjectE@Base 15.07.90
 _ZN7Akonadi19SelectionProxyModelC1EP19QItemSelectionModelP7QObject@Base 15.07.90
 _ZN7Akonadi19SelectionProxyModelC2EP19QItemSelectionModelP7QObject@Base 15.07.90
 _ZN7Akonadi19SelectionProxyModelD0Ev@Base 15.07.90
 _ZN7Akonadi19SelectionProxyModelD1Ev@Base 15.07.90
 _ZN7Akonadi19SelectionProxyModelD2Ev@Base 15.07.90
 _ZN7Akonadi19TransactionBeginJob11qt_metacallEN11QMetaObject4CallEiPPv@Base 15.07.90
 _ZN7Akonadi19TransactionBeginJob11qt_metacastEPKc@Base 15.07.90
 _ZN7Akonadi19TransactionBeginJob16staticMetaObjectE@Base 15.07.90
 _ZN7Akonadi19TransactionBeginJobC1EP7QObject@Base 15.07.90
 _ZN7Akonadi19TransactionBeginJobC2EP7QObject@Base 15.07.90
 _ZN7Akonadi19TransactionBeginJobD0Ev@Base 15.07.90
 _ZN7Akonadi19TransactionBeginJobD1Ev@Base 15.07.90
 _ZN7Akonadi19TransactionBeginJobD2Ev@Base 15.07.90
 _ZN7Akonadi19TransactionSequence10slotResultEP4KJob@Base 15.07.90
 _ZN7Akonadi19TransactionSequence11qt_metacallEN11QMetaObject4CallEiPPv@Base 15.07.90
 _ZN7Akonadi19TransactionSequence11qt_metacastEPKc@Base 15.07.90
 _ZN7Akonadi19TransactionSequence16staticMetaObjectE@Base 15.07.90
 _ZN7Akonadi19TransactionSequence19setIgnoreJobFailureEP4KJob@Base 15.07.90
 _ZN7Akonadi19TransactionSequence29setAutomaticCommittingEnabledEb@Base 15.07.90
 _ZN7Akonadi19TransactionSequence6commitEv@Base 15.07.90
 _ZN7Akonadi19TransactionSequence7doStartEv@Base 15.07.90
 _ZN7Akonadi19TransactionSequence8rollbackEv@Base 15.07.90
 _ZN7Akonadi19TransactionSequence9addSubjobEP4KJob@Base 15.07.90
 _ZN7Akonadi19TransactionSequenceC1EP7QObject@Base 15.07.90
 _ZN7Akonadi19TransactionSequenceC2EP7QObject@Base 15.07.90
 _ZN7Akonadi19TransactionSequenceD0Ev@Base 15.07.90
 _ZN7Akonadi19TransactionSequenceD1Ev@Base 15.07.90
 _ZN7Akonadi19TransactionSequenceD2Ev@Base 15.07.90
 _ZN7Akonadi20CollectionFetchScope11setResourceERK7QString@Base 15.07.90
 _ZN7Akonadi20CollectionFetchScope13setListFilterENS0_10ListFilterE@Base 15.07.90
 _ZN7Akonadi20CollectionFetchScope14fetchAttributeERK10QByteArrayb@Base 15.07.90
 _ZN7Akonadi20CollectionFetchScope14setFetchIdOnlyEb@Base 15.07.90
 _ZN7Akonadi20CollectionFetchScope18ancestorFetchScopeEv@Base 15.07.90
 _ZN7Akonadi20CollectionFetchScope19setContentMimeTypesERK11QStringList@Base 15.07.90
 _ZN7Akonadi20CollectionFetchScope20setAncestorRetrievalENS0_17AncestorRetrievalE@Base 15.07.90
 _ZN7Akonadi20CollectionFetchScope20setIncludeStatisticsEb@Base 15.07.90
 _ZN7Akonadi20CollectionFetchScope21setAncestorFetchScopeERKS0_@Base 15.07.90
 _ZN7Akonadi20CollectionFetchScope22setIncludeUnsubscribedEb@Base 15.07.90
 _ZN7Akonadi20CollectionFetchScope24setIgnoreRetrievalErrorsEb@Base 15.07.90
 _ZN7Akonadi20CollectionFetchScopeC1ERKS0_@Base 15.07.90
 _ZN7Akonadi20CollectionFetchScopeC1Ev@Base 15.07.90
 _ZN7Akonadi20CollectionFetchScopeC2ERKS0_@Base 15.07.90
 _ZN7Akonadi20CollectionFetchScopeC2Ev@Base 15.07.90
 _ZN7Akonadi20CollectionFetchScopeD1Ev@Base 15.07.90
 _ZN7Akonadi20CollectionFetchScopeD2Ev@Base 15.07.90
 _ZN7Akonadi20CollectionFetchScopeaSERKS0_@Base 15.07.90
 _ZN7Akonadi20CollectionStatistics14setUnreadCountEx@Base 15.07.90
 _ZN7Akonadi20CollectionStatistics7setSizeEx@Base 15.07.90
 _ZN7Akonadi20CollectionStatistics8setCountEx@Base 15.07.90
 _ZN7Akonadi20CollectionStatisticsC1ERKS0_@Base 15.07.90
 _ZN7Akonadi20CollectionStatisticsC1Ev@Base 15.07.90
 _ZN7Akonadi20CollectionStatisticsC2ERKS0_@Base 15.07.90
 _ZN7Akonadi20CollectionStatisticsC2Ev@Base 15.07.90
 _ZN7Akonadi20CollectionStatisticsD1Ev@Base 15.07.90
 _ZN7Akonadi20CollectionStatisticsD2Ev@Base 15.07.90
 _ZN7Akonadi20CollectionStatisticsaSERKS0_@Base 15.07.90
 _ZN7Akonadi20IndexPolicyAttribute11deserializeERK10QByteArray@Base 15.07.90
 _ZN7Akonadi20IndexPolicyAttribute18setIndexingEnabledEb@Base 15.07.90
 _ZN7Akonadi20IndexPolicyAttributeC1Ev@Base 15.07.90
 _ZN7Akonadi20IndexPolicyAttributeC2Ev@Base 15.07.90
 _ZN7Akonadi20IndexPolicyAttributeD0Ev@Base 15.07.90
 _ZN7Akonadi20IndexPolicyAttributeD1Ev@Base 15.07.90
 _ZN7Akonadi20IndexPolicyAttributeD2Ev@Base 15.07.90
 _ZN7Akonadi20ItemModifyJobPrivate11preparePartERK10QByteArray@Base 15.07.90
 _ZN7Akonadi20ItemModifyJobPrivate16conflictResolvedEv@Base 15.07.90
 _ZN7Akonadi20ItemModifyJobPrivate20conflictResolveErrorERK7QString@Base 15.07.90
 _ZN7Akonadi20ItemModifyJobPrivate20doUpdateItemRevisionExii@Base 15.07.90
 _ZN7Akonadi20ItemModifyJobPrivate8setCleanEv@Base 15.07.90
 _ZN7Akonadi20ItemModifyJobPrivate9setSilentEb@Base 15.07.90
 _ZN7Akonadi20ItemModifyJobPrivateC1EPNS_13ItemModifyJobE@Base 15.07.90
 _ZN7Akonadi20ItemModifyJobPrivateC2EPNS_13ItemModifyJobE@Base 15.07.90
 _ZN7Akonadi20ItemSerializerPlugin20overridePluginLookupEP7QObject@Base 15.07.90
 _ZN7Akonadi20ItemSerializerPluginD0Ev@Base 15.07.90
 _ZN7Akonadi20ItemSerializerPluginD1Ev@Base 15.07.90
 _ZN7Akonadi20ItemSerializerPluginD2Ev@Base 15.07.90
 _ZN7Akonadi20StatisticsProxyModel11qt_metacallEN11QMetaObject4CallEiPPv@Base 15.07.90
 _ZN7Akonadi20StatisticsProxyModel11qt_metacastEPKc@Base 15.07.90
 _ZN7Akonadi20StatisticsProxyModel13connectNotifyERK11QMetaMethod@Base 15.07.90
 _ZN7Akonadi20StatisticsProxyModel14setSourceModelEP18QAbstractItemModel@Base 15.07.90
 _ZN7Akonadi20StatisticsProxyModel16staticMetaObjectE@Base 15.07.90
 _ZN7Akonadi20StatisticsProxyModel17setToolTipEnabledEb@Base 15.07.90
 _ZN7Akonadi20StatisticsProxyModel22setExtraColumnsEnabledEb@Base 15.07.90
 _ZN7Akonadi20StatisticsProxyModel7Private16proxyDataChangedERK11QModelIndexS4_@Base 15.07.90
 _ZN7Akonadi20StatisticsProxyModel7Private19sourceLayoutChangedEv@Base 15.07.90
 _ZN7Akonadi20StatisticsProxyModel7Private28sourceLayoutAboutToBeChangedEv@Base 15.07.90
 _ZN7Akonadi20StatisticsProxyModelC1EP7QObject@Base 15.07.90
 _ZN7Akonadi20StatisticsProxyModelC2EP7QObject@Base 15.07.90
 _ZN7Akonadi20StatisticsProxyModelD0Ev@Base 15.07.90
 _ZN7Akonadi20StatisticsProxyModelD1Ev@Base 15.07.90
 _ZN7Akonadi20StatisticsProxyModelD2Ev@Base 15.07.90
 _ZN7Akonadi20TransactionCommitJob11qt_metacallEN11QMetaObject4CallEiPPv@Base 15.07.90
 _ZN7Akonadi20TransactionCommitJob11qt_metacastEPKc@Base 15.07.90
 _ZN7Akonadi20TransactionCommitJob16staticMetaObjectE@Base 15.07.90
 _ZN7Akonadi20TransactionCommitJobC1EP7QObject@Base 15.07.90
 _ZN7Akonadi20TransactionCommitJobC2EP7QObject@Base 15.07.90
 _ZN7Akonadi20TransactionCommitJobD0Ev@Base 15.07.90
 _ZN7Akonadi20TransactionCommitJobD1Ev@Base 15.07.90
 _ZN7Akonadi20TransactionCommitJobD2Ev@Base 15.07.90
 _ZN7Akonadi21AgentFilterProxyModel11qt_metacallEN11QMetaObject4CallEiPPv@Base 15.07.90
 _ZN7Akonadi21AgentFilterProxyModel11qt_metacastEPKc@Base 15.07.90
 _ZN7Akonadi21AgentFilterProxyModel12clearFiltersEv@Base 15.07.90
 _ZN7Akonadi21AgentFilterProxyModel16staticMetaObjectE@Base 15.07.90
 _ZN7Akonadi21AgentFilterProxyModel17addMimeTypeFilterERK7QString@Base 15.07.90
 _ZN7Akonadi21AgentFilterProxyModel19addCapabilityFilterERK7QString@Base 15.07.90
 _ZN7Akonadi21AgentFilterProxyModel19excludeCapabilitiesERK7QString@Base 15.07.90
 _ZN7Akonadi21AgentFilterProxyModel7Private18filterAcceptRegExpERK11QModelIndexRK7QRegExp@Base 15.07.90
 _ZN7Akonadi21AgentFilterProxyModelC1EP7QObject@Base 15.07.90
 _ZN7Akonadi21AgentFilterProxyModelC2EP7QObject@Base 15.07.90
 _ZN7Akonadi21AgentFilterProxyModelD0Ev@Base 15.07.90
 _ZN7Akonadi21AgentFilterProxyModelD1Ev@Base 15.07.90
 _ZN7Akonadi21AgentFilterProxyModelD2Ev@Base 15.07.90
 _ZN7Akonadi21AsyncSelectionHandler11qt_metacallEN11QMetaObject4CallEiPPv@Base 15.07.90
 _ZN7Akonadi21AsyncSelectionHandler11qt_metacastEPKc@Base 15.07.90
 _ZN7Akonadi21AsyncSelectionHandler11scanSubTreeERK11QModelIndexb@Base 15.07.90
 _ZN7Akonadi21AsyncSelectionHandler11waitForItemERKNS_4ItemE@Base 15.07.90
 _ZN7Akonadi21AsyncSelectionHandler12rowsInsertedERK11QModelIndexii@Base 15.07.90
 _ZN7Akonadi21AsyncSelectionHandler13itemAvailableERK11QModelIndex@Base 15.07.90
 _ZN7Akonadi21AsyncSelectionHandler16staticMetaObjectE@Base 15.07.90
 _ZN7Akonadi21AsyncSelectionHandler17waitForCollectionERKNS_10CollectionE@Base 15.07.90
 _ZN7Akonadi21AsyncSelectionHandler19collectionAvailableERK11QModelIndex@Base 15.07.90
 _ZN7Akonadi21AsyncSelectionHandlerC1EP18QAbstractItemModelP7QObject@Base 15.07.90
 _ZN7Akonadi21AsyncSelectionHandlerC2EP18QAbstractItemModelP7QObject@Base 15.07.90
 _ZN7Akonadi21AsyncSelectionHandlerD0Ev@Base 15.07.90
 _ZN7Akonadi21AsyncSelectionHandlerD1Ev@Base 15.07.90
 _ZN7Akonadi21AsyncSelectionHandlerD2Ev@Base 15.07.90
 _ZN7Akonadi21ChangeRecorderPrivate10slotNotifyERKNS_8Protocol18ChangeNotificationE@Base 15.07.90
 _ZN7Akonadi21ChangeRecorderPrivate11addToStreamER11QDataStreamRKNS_8Protocol18ChangeNotificationE@Base 15.07.90
 _ZN7Akonadi21ChangeRecorderPrivate16emitNotificationERKNS_8Protocol18ChangeNotificationE@Base 15.07.90
 _ZN7Akonadi21ChangeRecorderPrivate16writeStartOffsetEv@Base 15.07.90
 _ZN7Akonadi21ChangeRecorderPrivate17loadNotificationsEv@Base 15.07.90
 _ZN7Akonadi21ChangeRecorderPrivate17saveNotificationsEv@Base 15.07.90
 _ZN7Akonadi21ChangeRecorderPrivate19dequeueNotificationEv@Base 15.07.90
 _ZN7Akonadi21ChangeRecorderPrivate19notificationsErasedEv@Base 15.07.90
 _ZN7Akonadi21ChangeRecorderPrivate19notificationsLoadedEv@Base 15.07.90
 _ZN7Akonadi21ChangeRecorderPrivate21notificationsEnqueuedEi@Base 15.07.90
 _ZN7Akonadi21ChangeRecorderPrivate6saveToEP9QIODevice@Base 15.07.90
 _ZN7Akonadi21ChangeRecorderPrivateC1EPNS_37ChangeNotificationDependenciesFactoryEPNS_14ChangeRecorderE@Base 15.07.90
 _ZN7Akonadi21ChangeRecorderPrivateC2EPNS_37ChangeNotificationDependenciesFactoryEPNS_14ChangeRecorderE@Base 15.07.90
 _ZN7Akonadi21EntityHiddenAttribute11deserializeERK10QByteArray@Base 15.07.90
 _ZN7Akonadi21EntityHiddenAttributeC1Ev@Base 15.07.90
 _ZN7Akonadi21EntityHiddenAttributeC2Ev@Base 15.07.90
 _ZN7Akonadi21EntityHiddenAttributeD0Ev@Base 15.07.90
 _ZN7Akonadi21EntityHiddenAttributeD1Ev@Base 15.07.90
 _ZN7Akonadi21EntityHiddenAttributeD2Ev@Base 15.07.90
 _ZN7Akonadi21EntityOrderProxyModel10clearOrderERK11QModelIndex@Base 15.07.90
 _ZN7Akonadi21EntityOrderProxyModel11qt_metacallEN11QMetaObject4CallEiPPv@Base 15.07.90
 _ZN7Akonadi21EntityOrderProxyModel11qt_metacastEPKc@Base 15.07.90
 _ZN7Akonadi21EntityOrderProxyModel12dropMimeDataEPK9QMimeDataN2Qt10DropActionEiiRK11QModelIndex@Base 15.07.90
 _ZN7Akonadi21EntityOrderProxyModel14clearTreeOrderEv@Base 15.07.90
 _ZN7Akonadi21EntityOrderProxyModel14setOrderConfigER12KConfigGroup@Base 15.07.90
 _ZN7Akonadi21EntityOrderProxyModel16staticMetaObjectE@Base 15.07.90
 _ZN7Akonadi21EntityOrderProxyModel9saveOrderEv@Base 15.07.90
 _ZN7Akonadi21EntityOrderProxyModelC1EP7QObject@Base 15.07.90
 _ZN7Akonadi21EntityOrderProxyModelC2EP7QObject@Base 15.07.90
 _ZN7Akonadi21EntityOrderProxyModelD0Ev@Base 15.07.90
 _ZN7Akonadi21EntityOrderProxyModelD1Ev@Base 15.07.90
 _ZN7Akonadi21EntityOrderProxyModelD2Ev@Base 15.07.90
 _ZN7Akonadi21Pop3ResourceAttribute11deserializeERK10QByteArray@Base 15.07.90
 _ZN7Akonadi21Pop3ResourceAttribute18setPop3AccountNameERK7QString@Base 15.07.90
 _ZN7Akonadi21Pop3ResourceAttributeC1Ev@Base 15.07.90
 _ZN7Akonadi21Pop3ResourceAttributeC2Ev@Base 15.07.90
 _ZN7Akonadi21Pop3ResourceAttributeD0Ev@Base 15.07.90
 _ZN7Akonadi21Pop3ResourceAttributeD1Ev@Base 15.07.90
 _ZN7Akonadi21Pop3ResourceAttributeD2Ev@Base 15.07.90
 _ZN7Akonadi21RecursiveItemFetchJob10fetchScopeEv@Base 15.07.90
 _ZN7Akonadi21RecursiveItemFetchJob11qt_metacallEN11QMetaObject4CallEiPPv@Base 15.07.90
 _ZN7Akonadi21RecursiveItemFetchJob11qt_metacastEPKc@Base 15.07.90
 _ZN7Akonadi21RecursiveItemFetchJob13setFetchScopeERKNS_14ItemFetchScopeE@Base 15.07.90
 _ZN7Akonadi21RecursiveItemFetchJob16staticMetaObjectE@Base 15.07.90
 _ZN7Akonadi21RecursiveItemFetchJob5startEv@Base 15.07.90
 _ZN7Akonadi21RecursiveItemFetchJobC1ERKNS_10CollectionERK11QStringListP7QObject@Base 15.07.90
 _ZN7Akonadi21RecursiveItemFetchJobC2ERKNS_10CollectionERK11QStringListP7QObject@Base 15.07.90
 _ZN7Akonadi21RecursiveItemFetchJobD0Ev@Base 15.07.90
 _ZN7Akonadi21RecursiveItemFetchJobD1Ev@Base 15.07.90
 _ZN7Akonadi21RecursiveItemFetchJobD2Ev@Base 15.07.90
 _ZN7Akonadi21TrashFilterProxyModel11qt_metacallEN11QMetaObject4CallEiPPv@Base 15.07.90
 _ZN7Akonadi21TrashFilterProxyModel11qt_metacastEPKc@Base 15.07.90
 _ZN7Akonadi21TrashFilterProxyModel16staticMetaObjectE@Base 15.07.90
 _ZN7Akonadi21TrashFilterProxyModel9showTrashEb@Base 15.07.90
 _ZN7Akonadi21TrashFilterProxyModelC1EP7QObject@Base 15.07.90
 _ZN7Akonadi21TrashFilterProxyModelC2EP7QObject@Base 15.07.90
 _ZN7Akonadi21TrashFilterProxyModelD0Ev@Base 15.07.90
 _ZN7Akonadi21TrashFilterProxyModelD1Ev@Base 15.07.90
 _ZN7Akonadi21TrashFilterProxyModelD2Ev@Base 15.07.90
 _ZN7Akonadi22AgentInstanceCreateJob11qt_metacallEN11QMetaObject4CallEiPPv@Base 15.07.90
 _ZN7Akonadi22AgentInstanceCreateJob11qt_metacastEPKc@Base 15.07.90
 _ZN7Akonadi22AgentInstanceCreateJob16staticMetaObjectE@Base 15.07.90
 _ZN7Akonadi22AgentInstanceCreateJob5startEv@Base 15.07.90
 _ZN7Akonadi22AgentInstanceCreateJob9configureEP7QWidget@Base 15.07.90
 _ZN7Akonadi22AgentInstanceCreateJobC1ERK7QStringP7QObject@Base 15.07.90
 _ZN7Akonadi22AgentInstanceCreateJobC1ERKNS_9AgentTypeEP7QObject@Base 15.07.90
 _ZN7Akonadi22AgentInstanceCreateJobC2ERK7QStringP7QObject@Base 15.07.90
 _ZN7Akonadi22AgentInstanceCreateJobC2ERKNS_9AgentTypeEP7QObject@Base 15.07.90
 _ZN7Akonadi22AgentInstanceCreateJobD0Ev@Base 15.07.90
 _ZN7Akonadi22AgentInstanceCreateJobD1Ev@Base 15.07.90
 _ZN7Akonadi22AgentInstanceCreateJobD2Ev@Base 15.07.90
 _ZN7Akonadi22CollectionPathResolver11qt_metacallEN11QMetaObject4CallEiPPv@Base 15.07.90
 _ZN7Akonadi22CollectionPathResolver11qt_metacastEPKc@Base 15.07.90
 _ZN7Akonadi22CollectionPathResolver13pathDelimiterEv@Base 15.07.90
 _ZN7Akonadi22CollectionPathResolver16staticMetaObjectE@Base 15.07.90
 _ZN7Akonadi22CollectionPathResolver7doStartEv@Base 15.07.90
 _ZN7Akonadi22CollectionPathResolverC1ERK7QStringP7QObject@Base 15.07.90
 _ZN7Akonadi22CollectionPathResolverC1ERK7QStringRKNS_10CollectionEP7QObject@Base 15.07.90
 _ZN7Akonadi22CollectionPathResolverC1ERKNS_10CollectionEP7QObject@Base 15.07.90
 _ZN7Akonadi22CollectionPathResolverC2ERK7QStringP7QObject@Base 15.07.90
 _ZN7Akonadi22CollectionPathResolverC2ERK7QStringRKNS_10CollectionEP7QObject@Base 15.07.90
 _ZN7Akonadi22CollectionPathResolverC2ERKNS_10CollectionEP7QObject@Base 15.07.90
 _ZN7Akonadi22CollectionPathResolverD0Ev@Base 15.07.90
 _ZN7Akonadi22CollectionPathResolverD1Ev@Base 15.07.90
 _ZN7Akonadi22CollectionPathResolverD2Ev@Base 15.07.90
 _ZN7Akonadi22EntityDeletedAttribute11deserializeERK10QByteArray@Base 15.07.90
 _ZN7Akonadi22EntityDeletedAttribute20setRestoreCollectionERKNS_10CollectionE@Base 15.07.90
 _ZN7Akonadi22EntityDeletedAttributeC1Ev@Base 15.07.90
 _ZN7Akonadi22EntityDeletedAttributeC2Ev@Base 15.07.90
 _ZN7Akonadi22EntityDeletedAttributeD0Ev@Base 15.07.90
 _ZN7Akonadi22EntityDeletedAttributeD1Ev@Base 15.07.90
 _ZN7Akonadi22EntityDeletedAttributeD2Ev@Base 15.07.90
 _ZN7Akonadi22EntityDisplayAttribute11deserializeERK10QByteArray@Base 15.07.90
 _ZN7Akonadi22EntityDisplayAttribute11setIconNameERK7QString@Base 15.07.90
 _ZN7Akonadi22EntityDisplayAttribute14setDisplayNameERK7QString@Base 15.07.90
 _ZN7Akonadi22EntityDisplayAttribute17setActiveIconNameERK7QString@Base 15.07.90
 _ZN7Akonadi22EntityDisplayAttribute18setBackgroundColorERK6QColor@Base 15.07.90
 _ZN7Akonadi22EntityDisplayAttributeC1Ev@Base 15.07.90
 _ZN7Akonadi22EntityDisplayAttributeC2Ev@Base 15.07.90
 _ZN7Akonadi22EntityDisplayAttributeD0Ev@Base 15.07.90
 _ZN7Akonadi22EntityDisplayAttributeD1Ev@Base 15.07.90
 _ZN7Akonadi22EntityDisplayAttributeD2Ev@Base 15.07.90
 _ZN7Akonadi22EntityTreeModelPrivate10fetchItemsERKNS_10CollectionE@Base 15.07.90
 _ZN7Akonadi22EntityTreeModelPrivate10isBufferedEx@Base 15.07.90
 _ZN7Akonadi22EntityTreeModelPrivate10purgeItemsEx@Base 15.07.90
 _ZN7Akonadi22EntityTreeModelPrivate11dataChangedERK11QModelIndexS3_@Base 15.07.90
 _ZN7Akonadi22EntityTreeModelPrivate11isMonitoredEx@Base 15.07.90
 _ZN7Akonadi22EntityTreeModelPrivate11removeItemsEN5QListIP4NodeE8iteratorES5_PiRKNS_10CollectionE@Base 15.07.90
 _ZN7Akonadi22EntityTreeModelPrivate11shouldPurgeEx@Base 15.07.90
 _ZN7Akonadi22EntityTreeModelPrivate12itemsFetchedERK7QVectorINS_4ItemEE@Base 15.07.90
 _ZN7Akonadi22EntityTreeModelPrivate12itemsFetchedExRK7QVectorINS_4ItemEE@Base 15.07.90
 _ZN7Akonadi22EntityTreeModelPrivate12pasteJobDoneEP4KJob@Base 15.07.90
 _ZN7Akonadi22EntityTreeModelPrivate13endResetModelEv@Base 15.07.90
 _ZN7Akonadi22EntityTreeModelPrivate13serverStartedEv@Base 15.07.90
 _ZN7Akonadi22EntityTreeModelPrivate13updateJobDoneEP4KJob@Base 15.07.90
 _ZN7Akonadi22EntityTreeModelPrivate15beginResetModelEv@Base 15.07.90
 _ZN7Akonadi22EntityTreeModelPrivate15skipCollectionsEN5QListIP4NodeE8iteratorES5_Pi@Base 15.07.90
 _ZN7Akonadi22EntityTreeModelPrivate16ancestorsFetchedERK7QVectorINS_10CollectionEE@Base 15.07.90
 _ZN7Akonadi22EntityTreeModelPrivate16changeFetchStateERKNS_10CollectionE@Base 15.07.90
 _ZN7Akonadi22EntityTreeModelPrivate16fetchCollectionsEPNS_18CollectionFetchJobE@Base 15.07.90
 _ZN7Akonadi22EntityTreeModelPrivate16fetchCollectionsERK7QVectorINS_10CollectionEENS_18CollectionFetchJob4TypeE@Base 15.07.90
 _ZN7Akonadi22EntityTreeModelPrivate16fetchCollectionsERKNS_10CollectionENS_18CollectionFetchJob4TypeE@Base 15.07.90
 _ZN7Akonadi22EntityTreeModelPrivate16insertCollectionERKNS_10CollectionES3_@Base 15.07.90
 _ZN7Akonadi22EntityTreeModelPrivate16itemFetchJobDoneEP4KJob@Base 15.07.90
 _ZN7Akonadi22EntityTreeModelPrivate16rootFetchJobDoneEP4KJob@Base 15.07.90
 _ZN7Akonadi22EntityTreeModelPrivate17retrieveAncestorsERKNS_10CollectionEb@Base 15.07.90
 _ZN7Akonadi22EntityTreeModelPrivate17startFirstListJobEv@Base 15.07.90
 _ZN7Akonadi22EntityTreeModelPrivate18collectionsFetchedERK7QVectorINS_10CollectionEE@Base 15.07.90
 _ZN7Akonadi22EntityTreeModelPrivate18monitoredItemAddedERKNS_4ItemERKNS_10CollectionE@Base 15.07.90
 _ZN7Akonadi22EntityTreeModelPrivate18monitoredItemMovedERKNS_4ItemERKNS_10CollectionES6_@Base 15.07.90
 _ZN7Akonadi22EntityTreeModelPrivate19monitoredItemLinkedERKNS_4ItemERKNS_10CollectionE@Base 15.07.90
 _ZN7Akonadi22EntityTreeModelPrivate19removeChildEntitiesEx@Base 15.07.90
 _ZN7Akonadi22EntityTreeModelPrivate20agentInstanceRemovedERKNS_13AgentInstanceE@Base 15.07.90
 _ZN7Akonadi22EntityTreeModelPrivate20monitoredItemChangedERKNS_4ItemERK4QSetI10QByteArrayE@Base 15.07.90
 _ZN7Akonadi22EntityTreeModelPrivate20monitoredItemRemovedERKNS_4ItemE@Base 15.07.90
 _ZN7Akonadi22EntityTreeModelPrivate21collectionListFetchedERK7QVectorINS_10CollectionEE@Base 15.07.90
 _ZN7Akonadi22EntityTreeModelPrivate21monitoredItemUnlinkedERKNS_4ItemERKNS_10CollectionE@Base 15.07.90
 _ZN7Akonadi22EntityTreeModelPrivate21monitoredItemsChangedERKNS_4ItemEb@Base 15.07.90
 _ZN7Akonadi22EntityTreeModelPrivate22collectionFetchJobDoneEP4KJob@Base 15.07.90
 _ZN7Akonadi22EntityTreeModelPrivate23monitoredItemsRetrievedEP4KJob@Base 15.07.90
 _ZN7Akonadi22EntityTreeModelPrivate24monitoredCollectionAddedERKNS_10CollectionES3_@Base 15.07.90
 _ZN7Akonadi22EntityTreeModelPrivate24monitoredCollectionMovedERKNS_10CollectionES3_S3_@Base 15.07.90
 _ZN7Akonadi22EntityTreeModelPrivate24monitoredMimeTypeChangedERK7QStringb@Base 15.07.90
 _ZN7Akonadi22EntityTreeModelPrivate25monitoredResourcesChangedERK10QByteArrayb@Base 15.07.90
 _ZN7Akonadi22EntityTreeModelPrivate26monitoredCollectionChangedERKNS_10CollectionE@Base 15.07.90
 _ZN7Akonadi22EntityTreeModelPrivate26monitoredCollectionRemovedERKNS_10CollectionE@Base 15.07.90
 _ZN7Akonadi22EntityTreeModelPrivate26topLevelCollectionsFetchedERK7QVectorINS_10CollectionEE@Base 15.07.90
 _ZN7Akonadi22EntityTreeModelPrivate27monitoredCollectionsChangedERKNS_10CollectionEb@Base 15.07.90
 _ZN7Akonadi22EntityTreeModelPrivate36monitoredCollectionStatisticsChangedExRKNS_20CollectionStatisticsE@Base 15.07.90
 _ZN7Akonadi22EntityTreeModelPrivate3refEx@Base 15.07.90
 _ZN7Akonadi22EntityTreeModelPrivate4initEPNS_14ChangeRecorderE@Base 15.07.90
 _ZN7Akonadi22EntityTreeModelPrivate5derefEx@Base 15.07.90
 _ZN7Akonadi22EntityTreeModelPrivate9fillModelEv@Base 15.07.90
 _ZN7Akonadi22EntityTreeModelPrivateC1EPNS_15EntityTreeModelE@Base 15.07.90
 _ZN7Akonadi22EntityTreeModelPrivateC2EPNS_15EntityTreeModelE@Base 15.07.90
 _ZN7Akonadi22EntityTreeModelPrivateD1Ev@Base 15.07.90
 _ZN7Akonadi22EntityTreeModelPrivateD2Ev@Base 15.07.90
 _ZN7Akonadi22ItemSerializerPluginV25applyERNS_4ItemERKS1_@Base 15.07.90
 _ZN7Akonadi22ItemSerializerPluginV2D0Ev@Base 15.07.90
 _ZN7Akonadi22ItemSerializerPluginV2D1Ev@Base 15.07.90
 _ZN7Akonadi22ItemSerializerPluginV2D2Ev@Base 15.07.90
 _ZN7Akonadi22TransactionRollbackJob11qt_metacallEN11QMetaObject4CallEiPPv@Base 15.07.90
 _ZN7Akonadi22TransactionRollbackJob11qt_metacastEPKc@Base 15.07.90
 _ZN7Akonadi22TransactionRollbackJob16staticMetaObjectE@Base 15.07.90
 _ZN7Akonadi22TransactionRollbackJobC1EP7QObject@Base 15.07.90
 _ZN7Akonadi22TransactionRollbackJobC2EP7QObject@Base 15.07.90
 _ZN7Akonadi22TransactionRollbackJobD0Ev@Base 15.07.90
 _ZN7Akonadi22TransactionRollbackJobD1Ev@Base 15.07.90
 _ZN7Akonadi22TransactionRollbackJobD2Ev@Base 15.07.90
 _ZN7Akonadi23CollectionStatisticsJob11qt_metacallEN11QMetaObject4CallEiPPv@Base 15.07.90
 _ZN7Akonadi23CollectionStatisticsJob11qt_metacastEPKc@Base 15.07.90
 _ZN7Akonadi23CollectionStatisticsJob16doHandleResponseExRKNS_8Protocol7CommandE@Base 15.07.90
 _ZN7Akonadi23CollectionStatisticsJob16staticMetaObjectE@Base 15.07.90
 _ZN7Akonadi23CollectionStatisticsJob7doStartEv@Base 15.07.90
 _ZN7Akonadi23CollectionStatisticsJobC1ERKNS_10CollectionEP7QObject@Base 15.07.90
 _ZN7Akonadi23CollectionStatisticsJobC2ERKNS_10CollectionEP7QObject@Base 15.07.90
 _ZN7Akonadi23CollectionStatisticsJobD0Ev@Base 15.07.90
 _ZN7Akonadi23CollectionStatisticsJobD1Ev@Base 15.07.90
 _ZN7Akonadi23CollectionStatisticsJobD2Ev@Base 15.07.90
 _ZN7Akonadi23EntityRightsFilterModel11qt_metacallEN11QMetaObject4CallEiPPv@Base 15.07.90
 _ZN7Akonadi23EntityRightsFilterModel11qt_metacastEPKc@Base 15.07.90
 _ZN7Akonadi23EntityRightsFilterModel15setAccessRightsE6QFlagsINS_10Collection5RightEE@Base 15.07.90
 _ZN7Akonadi23EntityRightsFilterModel16staticMetaObjectE@Base 15.07.90
 _ZN7Akonadi23EntityRightsFilterModelC1EP7QObject@Base 15.07.90
 _ZN7Akonadi23EntityRightsFilterModelC2EP7QObject@Base 15.07.90
 _ZN7Akonadi23EntityRightsFilterModelD0Ev@Base 15.07.90
 _ZN7Akonadi23EntityRightsFilterModelD1Ev@Base 15.07.90
 _ZN7Akonadi23EntityRightsFilterModelD2Ev@Base 15.07.90
 _ZN7Akonadi24CollectionQuotaAttribute11deserializeERK10QByteArray@Base 15.07.90
 _ZN7Akonadi24CollectionQuotaAttribute15setCurrentValueEx@Base 15.07.90
 _ZN7Akonadi24CollectionQuotaAttribute15setMaximumValueEx@Base 15.07.90
 _ZN7Akonadi24CollectionQuotaAttributeC1Ev@Base 15.07.90
 _ZN7Akonadi24CollectionQuotaAttributeC1Exx@Base 15.07.90
 _ZN7Akonadi24CollectionQuotaAttributeC2Ev@Base 15.07.90
 _ZN7Akonadi24CollectionQuotaAttributeC2Exx@Base 15.07.90
 _ZN7Akonadi24CollectionQuotaAttributeD0Ev@Base 15.07.90
 _ZN7Akonadi24CollectionQuotaAttributeD1Ev@Base 15.07.90
 _ZN7Akonadi24CollectionQuotaAttributeD2Ev@Base 15.07.90
 _ZN7Akonadi24FavoriteCollectionsModel11qt_metacallEN11QMetaObject4CallEiPPv@Base 15.07.90
 _ZN7Akonadi24FavoriteCollectionsModel11qt_metacastEPKc@Base 15.07.90
 _ZN7Akonadi24FavoriteCollectionsModel12dropMimeDataEPK9QMimeDataN2Qt10DropActionEiiRK11QModelIndex@Base 15.07.90
 _ZN7Akonadi24FavoriteCollectionsModel12pasteJobDoneEP4KJob@Base 15.07.90
 _ZN7Akonadi24FavoriteCollectionsModel13addCollectionERKNS_10CollectionE@Base 15.07.90
 _ZN7Akonadi24FavoriteCollectionsModel13favoriteLabelERKNS_10CollectionE@Base 15.07.90
 _ZN7Akonadi24FavoriteCollectionsModel14setCollectionsERK7QVectorINS_10CollectionEE@Base 15.07.90
 _ZN7Akonadi24FavoriteCollectionsModel16removeCollectionERKNS_10CollectionE@Base 15.07.90
 _ZN7Akonadi24FavoriteCollectionsModel16setFavoriteLabelERKNS_10CollectionERK7QString@Base 15.07.90
 _ZN7Akonadi24FavoriteCollectionsModel16staticMetaObjectE@Base 15.07.90
 _ZN7Akonadi24FavoriteCollectionsModel7setDataERK11QModelIndexRK8QVarianti@Base 15.07.90
 _ZN7Akonadi24FavoriteCollectionsModelC1EP18QAbstractItemModelRK12KConfigGroupP7QObject@Base 15.07.90
 _ZN7Akonadi24FavoriteCollectionsModelC2EP18QAbstractItemModelRK12KConfigGroupP7QObject@Base 15.07.90
 _ZN7Akonadi24FavoriteCollectionsModelD0Ev@Base 15.07.90
 _ZN7Akonadi24FavoriteCollectionsModelD1Ev@Base 15.07.90
 _ZN7Akonadi24FavoriteCollectionsModelD2Ev@Base 15.07.90
 _ZN7Akonadi24NewMailNotifierAttribute11deserializeERK10QByteArray@Base 15.07.90
 _ZN7Akonadi24NewMailNotifierAttribute16setIgnoreNewMailEb@Base 15.07.90
 _ZN7Akonadi24NewMailNotifierAttributeC1Ev@Base 15.07.90
 _ZN7Akonadi24NewMailNotifierAttributeC2Ev@Base 15.07.90
 _ZN7Akonadi24NewMailNotifierAttributeD0Ev@Base 15.07.90
 _ZN7Akonadi24NewMailNotifierAttributeD1Ev@Base 15.07.90
 _ZN7Akonadi24NewMailNotifierAttributeD2Ev@Base 15.07.90
 _ZN7Akonadi25CollectionRightsAttribute11deserializeERK10QByteArray@Base 15.07.90
 _ZN7Akonadi25CollectionRightsAttribute9setRightsE6QFlagsINS_10Collection5RightEE@Base 15.07.90
 _ZN7Akonadi25CollectionRightsAttributeC1Ev@Base 15.07.90
 _ZN7Akonadi25CollectionRightsAttributeC2Ev@Base 15.07.90
 _ZN7Akonadi25CollectionRightsAttributeD0Ev@Base 15.07.90
 _ZN7Akonadi25CollectionRightsAttributeD1Ev@Base 15.07.90
 _ZN7Akonadi25CollectionRightsAttributeD2Ev@Base 15.07.90
 _ZN7Akonadi25CollectionStatisticsModel11qt_metacallEN11QMetaObject4CallEiPPv@Base 15.07.90
 _ZN7Akonadi25CollectionStatisticsModel11qt_metacastEPKc@Base 15.07.90
 _ZN7Akonadi25CollectionStatisticsModel16staticMetaObjectE@Base 15.07.90
 _ZN7Akonadi25CollectionStatisticsModelC1EP7QObject@Base 15.07.90
 _ZN7Akonadi25CollectionStatisticsModelC2EP7QObject@Base 15.07.90
 _ZN7Akonadi25EntityMimeTypeFilterModel11qt_metacallEN11QMetaObject4CallEiPPv@Base 15.07.90
 _ZN7Akonadi25EntityMimeTypeFilterModel11qt_metacastEPKc@Base 15.07.90
 _ZN7Akonadi25EntityMimeTypeFilterModel12clearFiltersEv@Base 15.07.90
 _ZN7Akonadi25EntityMimeTypeFilterModel14setHeaderGroupENS_15EntityTreeModel11HeaderGroupE@Base 15.07.90
 _ZN7Akonadi25EntityMimeTypeFilterModel16staticMetaObjectE@Base 15.07.90
 _ZN7Akonadi25EntityMimeTypeFilterModel26addMimeTypeExclusionFilterERK7QString@Base 15.07.90
 _ZN7Akonadi25EntityMimeTypeFilterModel26addMimeTypeInclusionFilterERK7QString@Base 15.07.90
 _ZN7Akonadi25EntityMimeTypeFilterModel27addMimeTypeExclusionFiltersERK11QStringList@Base 15.07.90
 _ZN7Akonadi25EntityMimeTypeFilterModel27addMimeTypeInclusionFiltersERK11QStringList@Base 15.07.90
 _ZN7Akonadi25EntityMimeTypeFilterModelC1EP7QObject@Base 15.07.90
 _ZN7Akonadi25EntityMimeTypeFilterModelC2EP7QObject@Base 15.07.90
 _ZN7Akonadi25EntityMimeTypeFilterModelD0Ev@Base 15.07.90
 _ZN7Akonadi25EntityMimeTypeFilterModelD1Ev@Base 15.07.90
 _ZN7Akonadi25EntityMimeTypeFilterModelD2Ev@Base 15.07.90
 _ZN7Akonadi25PersistentSearchAttribute11deserializeERK10QByteArray@Base 15.07.90
 _ZN7Akonadi25PersistentSearchAttribute12setRecursiveEb@Base 15.07.90
 _ZN7Akonadi25PersistentSearchAttribute14setQueryStringERK7QString@Base 15.07.90
 _ZN7Akonadi25PersistentSearchAttribute19setQueryCollectionsERK5QListIxE@Base 15.07.90
 _ZN7Akonadi25PersistentSearchAttribute19setQueryCollectionsERK7QVectorINS_10CollectionEE@Base 15.07.90
 _ZN7Akonadi25PersistentSearchAttribute22setRemoteSearchEnabledEb@Base 15.07.90
 _ZN7Akonadi25PersistentSearchAttributeC1Ev@Base 15.07.90
 _ZN7Akonadi25PersistentSearchAttributeC2Ev@Base 15.07.90
 _ZN7Akonadi25PersistentSearchAttributeD0Ev@Base 15.07.90
 _ZN7Akonadi25PersistentSearchAttributeD1Ev@Base 15.07.90
 _ZN7Akonadi25PersistentSearchAttributeD2Ev@Base 15.07.90
 _ZN7Akonadi25SpecialCollectionsPrivate11emitChangedERK7QString@Base 15.07.90
 _ZN7Akonadi25SpecialCollectionsPrivate16endBatchRegisterEv@Base 15.07.90
 _ZN7Akonadi25SpecialCollectionsPrivate17collectionRemovedERKNS_10CollectionE@Base 15.07.90
 _ZN7Akonadi25SpecialCollectionsPrivate18beginBatchRegisterEv@Base 15.07.90
 _ZN7Akonadi25SpecialCollectionsPrivate24forgetFoldersForResourceERK7QString@Base 15.07.90
 _ZN7Akonadi25SpecialCollectionsPrivate26collectionFetchJobFinishedEP4KJob@Base 15.07.90
 _ZN7Akonadi25SpecialCollectionsPrivate27collectionStatisticsChangedExRKNS_20CollectionStatisticsE@Base 15.07.90
 _ZN7Akonadi25SpecialCollectionsPrivateC1EP19KCoreConfigSkeletonPNS_18SpecialCollectionsE@Base 15.07.90
 _ZN7Akonadi25SpecialCollectionsPrivateC2EP19KCoreConfigSkeletonPNS_18SpecialCollectionsE@Base 15.07.90
 _ZN7Akonadi25SpecialCollectionsPrivateD1Ev@Base 15.07.90
 _ZN7Akonadi25SpecialCollectionsPrivateD2Ev@Base 15.07.90
 _ZN7Akonadi26CollectionFilterProxyModel11qt_metacallEN11QMetaObject4CallEiPPv@Base 15.07.90
 _ZN7Akonadi26CollectionFilterProxyModel11qt_metacastEPKc@Base 15.07.90
 _ZN7Akonadi26CollectionFilterProxyModel12clearFiltersEv@Base 15.07.90
 _ZN7Akonadi26CollectionFilterProxyModel16staticMetaObjectE@Base 15.07.90
 _ZN7Akonadi26CollectionFilterProxyModel17addMimeTypeFilterERK7QString@Base 15.07.90
 _ZN7Akonadi26CollectionFilterProxyModel18addMimeTypeFiltersERK11QStringList@Base 15.07.90
 _ZN7Akonadi26CollectionFilterProxyModel28setExcludeVirtualCollectionsEb@Base 15.07.90
 _ZN7Akonadi26CollectionFilterProxyModel7Private18collectionAcceptedERK11QModelIndexb@Base 15.07.90
 _ZN7Akonadi26CollectionFilterProxyModelC1EP7QObject@Base 15.07.90
 _ZN7Akonadi26CollectionFilterProxyModelC2EP7QObject@Base 15.07.90
 _ZN7Akonadi26CollectionFilterProxyModelD0Ev@Base 15.07.90
 _ZN7Akonadi26CollectionFilterProxyModelD1Ev@Base 15.07.90
 _ZN7Akonadi26CollectionFilterProxyModelD2Ev@Base 15.07.90
 _ZN7Akonadi26EntityAnnotationsAttribute11deserializeERK10QByteArray@Base 15.07.90
 _ZN7Akonadi26EntityAnnotationsAttribute14setAnnotationsERK4QMapI10QByteArrayS2_E@Base 15.07.90
 _ZN7Akonadi26EntityAnnotationsAttribute5valueERK10QByteArray@Base 15.07.90
 _ZN7Akonadi26EntityAnnotationsAttribute6insertERK10QByteArrayRK7QString@Base 15.07.90
 _ZN7Akonadi26EntityAnnotationsAttributeC1ERK4QMapI10QByteArrayS2_E@Base 15.07.90
 _ZN7Akonadi26EntityAnnotationsAttributeC1Ev@Base 15.07.90
 _ZN7Akonadi26EntityAnnotationsAttributeC2ERK4QMapI10QByteArrayS2_E@Base 15.07.90
 _ZN7Akonadi26EntityAnnotationsAttributeC2Ev@Base 15.07.90
 _ZN7Akonadi26ResourceSynchronizationJob11qt_metacallEN11QMetaObject4CallEiPPv@Base 15.07.90
 _ZN7Akonadi26ResourceSynchronizationJob11qt_metacastEPKc@Base 15.07.90
 _ZN7Akonadi26ResourceSynchronizationJob16staticMetaObjectE@Base 15.07.90
 _ZN7Akonadi26ResourceSynchronizationJob21setCollectionTreeOnlyEb@Base 15.07.90
 _ZN7Akonadi26ResourceSynchronizationJob5startEv@Base 15.07.90
 _ZN7Akonadi26ResourceSynchronizationJobC1ERKNS_13AgentInstanceEP7QObject@Base 15.07.90
 _ZN7Akonadi26ResourceSynchronizationJobC2ERKNS_13AgentInstanceEP7QObject@Base 15.07.90
 _ZN7Akonadi26ResourceSynchronizationJobD0Ev@Base 15.07.90
 _ZN7Akonadi26ResourceSynchronizationJobD1Ev@Base 15.07.90
 _ZN7Akonadi26ResourceSynchronizationJobD2Ev@Base 15.07.90
 _ZN7Akonadi26SpecialCollectionAttribute11deserializeERK10QByteArray@Base 15.07.90
 _ZN7Akonadi26SpecialCollectionAttribute17setCollectionTypeERK10QByteArray@Base 15.07.90
 _ZN7Akonadi26SpecialCollectionAttributeC1ERK10QByteArray@Base 15.07.90
 _ZN7Akonadi26SpecialCollectionAttributeC2ERK10QByteArray@Base 15.07.90
 _ZN7Akonadi26SpecialCollectionAttributeD0Ev@Base 15.07.90
 _ZN7Akonadi26SpecialCollectionAttributeD1Ev@Base 15.07.90
 _ZN7Akonadi26SpecialCollectionAttributeD2Ev@Base 15.07.90
 _ZN7Akonadi28SpecialCollectionsRequestJob10slotResultEP4KJob@Base 15.07.90
 _ZN7Akonadi28SpecialCollectionsRequestJob11qt_metacallEN11QMetaObject4CallEiPPv@Base 15.07.90
 _ZN7Akonadi28SpecialCollectionsRequestJob11qt_metacastEPKc@Base 15.07.90
 _ZN7Akonadi28SpecialCollectionsRequestJob16staticMetaObjectE@Base 15.07.90
 _ZN7Akonadi28SpecialCollectionsRequestJob17requestCollectionERK10QByteArrayRKNS_13AgentInstanceE@Base 15.07.90
 _ZN7Akonadi28SpecialCollectionsRequestJob17setIconForTypeMapERK4QMapI10QByteArray7QStringE@Base 15.07.90
 _ZN7Akonadi28SpecialCollectionsRequestJob17setNameForTypeMapERK4QMapI10QByteArray7QStringE@Base 15.07.90
 _ZN7Akonadi28SpecialCollectionsRequestJob22setDefaultResourceTypeERK7QString@Base 15.07.90
 _ZN7Akonadi28SpecialCollectionsRequestJob24requestDefaultCollectionERK10QByteArray@Base 15.07.90
 _ZN7Akonadi28SpecialCollectionsRequestJob25setDefaultResourceOptionsERK4QMapI7QString8QVariantE@Base 15.07.90
 _ZN7Akonadi28SpecialCollectionsRequestJob7doStartEv@Base 15.07.90
 _ZN7Akonadi28SpecialCollectionsRequestJob8setTypesERK5QListI10QByteArrayE@Base 15.07.90
 _ZN7Akonadi28SpecialCollectionsRequestJobC1EPNS_18SpecialCollectionsEP7QObject@Base 15.07.90
 _ZN7Akonadi28SpecialCollectionsRequestJobC2EPNS_18SpecialCollectionsEP7QObject@Base 15.07.90
 _ZN7Akonadi28SpecialCollectionsRequestJobD0Ev@Base 15.07.90
 _ZN7Akonadi28SpecialCollectionsRequestJobD1Ev@Base 15.07.90
 _ZN7Akonadi28SpecialCollectionsRequestJobD2Ev@Base 15.07.90
 _ZN7Akonadi30SpecialCollectionsDiscoveryJob10slotResultEP4KJob@Base 15.07.90
 _ZN7Akonadi30SpecialCollectionsDiscoveryJob11qt_metacallEN11QMetaObject4CallEiPPv@Base 15.07.90
 _ZN7Akonadi30SpecialCollectionsDiscoveryJob11qt_metacastEPKc@Base 15.07.90
 _ZN7Akonadi30SpecialCollectionsDiscoveryJob16staticMetaObjectE@Base 15.07.90
 _ZN7Akonadi30SpecialCollectionsDiscoveryJob5startEv@Base 15.07.90
 _ZN7Akonadi30SpecialCollectionsDiscoveryJobC1EPNS_18SpecialCollectionsERK11QStringListP7QObject@Base 15.07.90
 _ZN7Akonadi30SpecialCollectionsDiscoveryJobC2EPNS_18SpecialCollectionsERK11QStringListP7QObject@Base 15.07.90
 _ZN7Akonadi30SpecialCollectionsDiscoveryJobD0Ev@Base 15.07.90
 _ZN7Akonadi30SpecialCollectionsDiscoveryJobD1Ev@Base 15.07.90
 _ZN7Akonadi30SpecialCollectionsDiscoveryJobD2Ev@Base 15.07.90
 _ZN7Akonadi35RecursiveCollectionFilterProxyModel11qt_metacallEN11QMetaObject4CallEiPPv@Base 15.07.90
 _ZN7Akonadi35RecursiveCollectionFilterProxyModel11qt_metacastEPKc@Base 15.07.90
 _ZN7Akonadi35RecursiveCollectionFilterProxyModel12clearFiltersEv@Base 15.07.90
 _ZN7Akonadi35RecursiveCollectionFilterProxyModel16setSearchPatternERK7QString@Base 15.07.90
 _ZN7Akonadi35RecursiveCollectionFilterProxyModel16staticMetaObjectE@Base 15.07.90
 _ZN7Akonadi35RecursiveCollectionFilterProxyModel21setIncludeCheckedOnlyEb@Base 15.07.90
 _ZN7Akonadi35RecursiveCollectionFilterProxyModel33addContentMimeTypeInclusionFilterERK7QString@Base 15.07.90
 _ZN7Akonadi35RecursiveCollectionFilterProxyModel34addContentMimeTypeInclusionFiltersERK11QStringList@Base 15.07.90
 _ZN7Akonadi35RecursiveCollectionFilterProxyModel34setContentMimeTypeInclusionFiltersERK11QStringList@Base 15.07.90
 _ZN7Akonadi35RecursiveCollectionFilterProxyModelC1EP7QObject@Base 15.07.90
 _ZN7Akonadi35RecursiveCollectionFilterProxyModelC2EP7QObject@Base 15.07.90
 _ZN7Akonadi35RecursiveCollectionFilterProxyModelD0Ev@Base 15.07.90
 _ZN7Akonadi35RecursiveCollectionFilterProxyModelD1Ev@Base 15.07.90
 _ZN7Akonadi35RecursiveCollectionFilterProxyModelD2Ev@Base 15.07.90
 _ZN7Akonadi37ChangeNotificationDependenciesFactory15createItemCacheEiPNS_7SessionE@Base 15.07.90
 _ZN7Akonadi37ChangeNotificationDependenciesFactory18createTagListCacheEiPNS_7SessionE@Base 15.07.90
 _ZN7Akonadi37ChangeNotificationDependenciesFactory19createItemListCacheEiPNS_7SessionE@Base 15.07.90
 _ZN7Akonadi37ChangeNotificationDependenciesFactory20createChangeMediatorEP7QObject@Base 15.07.90
 _ZN7Akonadi37ChangeNotificationDependenciesFactory21createCollectionCacheEiPNS_7SessionE@Base 15.07.90
 _ZN7Akonadi37ChangeNotificationDependenciesFactory21createNotificationBusEP7QObjectPNS_18NotificationSourceE@Base 15.07.90
 _ZN7Akonadi37ChangeNotificationDependenciesFactory24createNotificationSourceEP7QObject@Base 15.07.90
 _ZN7Akonadi38CollectionAttributesSynchronizationJob11qt_metacallEN11QMetaObject4CallEiPPv@Base 15.07.90
 _ZN7Akonadi38CollectionAttributesSynchronizationJob11qt_metacastEPKc@Base 15.07.90
 _ZN7Akonadi38CollectionAttributesSynchronizationJob16staticMetaObjectE@Base 15.07.90
 _ZN7Akonadi38CollectionAttributesSynchronizationJob5startEv@Base 15.07.90
 _ZN7Akonadi38CollectionAttributesSynchronizationJobC1ERKNS_10CollectionEP7QObject@Base 15.07.90
 _ZN7Akonadi38CollectionAttributesSynchronizationJobC2ERKNS_10CollectionEP7QObject@Base 15.07.90
 _ZN7Akonadi38CollectionAttributesSynchronizationJobD0Ev@Base 15.07.90
 _ZN7Akonadi38CollectionAttributesSynchronizationJobD1Ev@Base 15.07.90
 _ZN7Akonadi38CollectionAttributesSynchronizationJobD2Ev@Base 15.07.90
 _ZN7Akonadi3Job10slotResultEP4KJob@Base 15.07.90
 _ZN7Akonadi3Job11qt_metacallEN11QMetaObject4CallEiPPv@Base 15.07.90
 _ZN7Akonadi3Job11qt_metacastEPKc@Base 15.07.90
 _ZN7Akonadi3Job12aboutToStartEPS0_@Base 15.07.90
 _ZN7Akonadi3Job12removeSubjobEP4KJob@Base 15.07.90
 _ZN7Akonadi3Job13writeFinishedEPS0_@Base 15.07.90
 _ZN7Akonadi3Job16doHandleResponseExRKNS_8Protocol7CommandE@Base 15.07.90
 _ZN7Akonadi3Job16staticMetaObjectE@Base 15.07.90
 _ZN7Akonadi3Job17emitWriteFinishedEv@Base 15.07.90
 _ZN7Akonadi3Job5startEv@Base 15.07.90
 _ZN7Akonadi3Job6doKillEv@Base 15.07.90
 _ZN7Akonadi3Job9addSubjobEP4KJob@Base 15.07.90
 _ZN7Akonadi3JobC1EP7QObject@Base 15.07.90
 _ZN7Akonadi3JobC1EPNS_10JobPrivateEP7QObject@Base 15.07.90
 _ZN7Akonadi3JobC2EP7QObject@Base 15.07.90
 _ZN7Akonadi3JobC2EPNS_10JobPrivateEP7QObject@Base 15.07.90
 _ZN7Akonadi3JobD0Ev@Base 15.07.90
 _ZN7Akonadi3JobD1Ev@Base 15.07.90
 _ZN7Akonadi3JobD2Ev@Base 15.07.90
 _ZN7Akonadi3Tag10genericTagERK7QString@Base 15.07.90
 _ZN7Akonadi3Tag5PLAINE@Base 15.07.90
 _ZN7Akonadi3Tag5setIdEx@Base 15.07.90
 _ZN7Akonadi3Tag7GENERICE@Base 15.07.90
 _ZN7Akonadi3Tag7fromUrlERK4QUrl@Base 15.07.90
 _ZN7Akonadi3Tag7setNameERK7QString@Base 15.07.90
 _ZN7Akonadi3Tag9setParentERKS0_@Base 15.07.90
 _ZN7Akonadi3TagC1ERK7QString@Base 15.07.90
 _ZN7Akonadi3TagC1ERKS0_@Base 15.07.90
 _ZN7Akonadi3TagC1Ev@Base 15.07.90
 _ZN7Akonadi3TagC1Ex@Base 15.07.90
 _ZN7Akonadi3TagC2ERK7QString@Base 15.07.90
 _ZN7Akonadi3TagC2ERKS0_@Base 15.07.90
 _ZN7Akonadi3TagC2Ev@Base 15.07.90
 _ZN7Akonadi3TagC2Ex@Base 15.07.90
 _ZN7Akonadi3TagD0Ev@Base 15.07.90
 _ZN7Akonadi3TagD1Ev@Base 15.07.90
 _ZN7Akonadi3TagD2Ev@Base 15.07.90
 _ZN7Akonadi3TagaSERKNS_15AttributeEntityE@Base 15.07.90
 _ZN7Akonadi3TagaSERKS0_@Base 15.07.90
 _ZN7Akonadi4Item10clearFlagsEv@Base 15.07.90
 _ZN7Akonadi4Item11FullPayloadE@Base 15.07.90
 _ZN7Akonadi4Item11setMimeTypeERK7QString@Base 15.07.90
 _ZN7Akonadi4Item11setRevisionEi@Base 15.07.90
 _ZN7Akonadi4Item12clearPayloadEv@Base 15.07.90
 _ZN7Akonadi4Item14setPayloadBaseEPNS_11PayloadBaseE@Base 15.07.90
 (optional=templinst|arch=!ppc64el)_ZN7Akonadi4Item14setPayloadImplI10QByteArrayEENSt9enable_ifIXntsrNS_8Internal12PayloadTraitIT_EE13isPolymorphicEvE4typeERKS6_@Base 15.07.90
 (optional=templinst)_ZN7Akonadi4Item14setPayloadImplINSt7__cxx1112basic_stringIcSt11char_traitsIcESaIcEEEEENSt9enable_ifIXntsrNS_8Internal12PayloadTraitIT_EE13isPolymorphicEvE4typeERKSB_@Base 15.07.90
 _ZN7Akonadi4Item16setPayloadBaseV2EiiRSt10unique_ptrINS_11PayloadBaseESt14default_deleteIS2_EE@Base 15.07.90
 (optional=templinst|arch=!ppc64el)_ZN7Akonadi4Item18addToLegacyMappingI10QByteArrayEEvRK7QString@Base 15.07.90
 _ZN7Akonadi4Item18setPayloadFromDataERK10QByteArray@Base 15.07.90
 _ZN7Akonadi4Item19setModificationTimeERK9QDateTime@Base 15.07.90
 _ZN7Akonadi4Item20setVirtualReferencesERK7QVectorINS_10CollectionEE@Base 15.07.90
 _ZN7Akonadi4Item21setCachedPayloadPartsERK4QSetI10QByteArrayE@Base 15.07.90
 _ZN7Akonadi4Item22addToLegacyMappingImplERK7QStringiiRSt10unique_ptrINS_11PayloadBaseESt14default_deleteIS5_EE@Base 15.07.90
 _ZN7Akonadi4Item22setStorageCollectionIdEx@Base 15.07.90
 _ZN7Akonadi4Item5applyERKS0_@Base 15.07.90
 _ZN7Akonadi4Item6d_funcEv@Base 15.07.90
 _ZN7Akonadi4Item6setGidERK7QString@Base 15.07.90
 _ZN7Akonadi4Item6setTagERKNS_3TagE@Base 15.07.90
 _ZN7Akonadi4Item7fromUrlERK4QUrl@Base 15.07.90
 _ZN7Akonadi4Item7setFlagERK10QByteArray@Base 15.07.90
 _ZN7Akonadi4Item7setSizeEx@Base 15.07.90
 _ZN7Akonadi4Item7setTagsERK5QListINS_3TagEE@Base 15.07.90
 _ZN7Akonadi4Item8clearTagERKNS_3TagE@Base 15.07.90
 _ZN7Akonadi4Item8setFlagsERK4QSetI10QByteArrayE@Base 15.07.90
 _ZN7Akonadi4Item9clearFlagERK10QByteArray@Base 15.07.90
 _ZN7Akonadi4Item9clearTagsEv@Base 15.07.90
 _ZN7Akonadi4ItemC1ERK7QString@Base 15.07.90
 _ZN7Akonadi4ItemC1ERKS0_@Base 15.07.90
 _ZN7Akonadi4ItemC1Ev@Base 15.07.90
 _ZN7Akonadi4ItemC1Ex@Base 15.07.90
 _ZN7Akonadi4ItemC2ERK7QString@Base 15.07.90
 _ZN7Akonadi4ItemC2ERKS0_@Base 15.07.90
 _ZN7Akonadi4ItemC2Ev@Base 15.07.90
 _ZN7Akonadi4ItemC2Ex@Base 15.07.90
 _ZN7Akonadi4ItemD1Ev@Base 15.07.90
 _ZN7Akonadi4ItemD2Ev@Base 15.07.90
 _ZN7Akonadi6Entity11setRemoteIdERK7QString@Base 15.07.90
 _ZN7Akonadi6Entity12addAttributeEPNS_9AttributeE@Base 15.07.90
 _ZN7Akonadi6Entity15clearAttributesEv@Base 15.07.90
 _ZN7Akonadi6Entity15removeAttributeERK10QByteArray@Base 15.07.90
 _ZN7Akonadi6Entity16parentCollectionEv@Base 15.07.90
 _ZN7Akonadi6Entity17setRemoteRevisionERK7QString@Base 15.07.90
 _ZN7Akonadi6Entity19setParentCollectionERKNS_10CollectionE@Base 15.07.90
 _ZN7Akonadi6Entity5setIdEx@Base 15.07.90
 _ZN7Akonadi6Entity6d_funcEv@Base 15.07.90
 (optional=templinst)_ZN7Akonadi6Entity9attributeINS_22EntityDisplayAttributeEEEPT_NS0_12CreateOptionE@Base 15.07.90
 _ZN7Akonadi6EntityC1EPNS_13EntityPrivateE@Base 15.07.90
 _ZN7Akonadi6EntityC1ERKS0_@Base 15.07.90
 _ZN7Akonadi6EntityC2EPNS_13EntityPrivateE@Base 15.07.90
 _ZN7Akonadi6EntityC2ERKS0_@Base 15.07.90
 _ZN7Akonadi6EntityD1Ev@Base 15.07.90
 _ZN7Akonadi6EntityD2Ev@Base 15.07.90
 _ZN7Akonadi6EntityaSERKS0_@Base 15.07.90
 _ZN7Akonadi7Control11qt_metacallEN11QMetaObject4CallEiPPv@Base 15.07.90
 _ZN7Akonadi7Control11qt_metacastEPKc@Base 15.07.90
 _ZN7Akonadi7Control16staticMetaObjectE@Base 15.07.90
 _ZN7Akonadi7Control4stopEv@Base 15.07.90
 _ZN7Akonadi7Control5startEv@Base 15.07.90
 _ZN7Akonadi7Control7Private18serverStateChangedENS_13ServerManager5StateE@Base 15.07.90
 _ZN7Akonadi7Control7Private4execEv@Base 15.07.90
 _ZN7Akonadi7Control7restartEv@Base 15.07.90
 _ZN7Akonadi7ControlC1Ev@Base 15.07.90
 _ZN7Akonadi7ControlC2Ev@Base 15.07.90
 _ZN7Akonadi7ControlD0Ev@Base 15.07.90
 _ZN7Akonadi7ControlD1Ev@Base 15.07.90
 _ZN7Akonadi7ControlD2Ev@Base 15.07.90
 _ZN7Akonadi7LinkJob11qt_metacallEN11QMetaObject4CallEiPPv@Base 15.07.90
 _ZN7Akonadi7LinkJob11qt_metacastEPKc@Base 15.07.90
 _ZN7Akonadi7LinkJob16doHandleResponseExRKNS_8Protocol7CommandE@Base 15.07.90
 _ZN7Akonadi7LinkJob16staticMetaObjectE@Base 15.07.90
 _ZN7Akonadi7LinkJob7doStartEv@Base 15.07.90
 _ZN7Akonadi7LinkJobC1ERKNS_10CollectionERK7QVectorINS_4ItemEEP7QObject@Base 15.07.90
 _ZN7Akonadi7LinkJobC2ERKNS_10CollectionERK7QVectorINS_4ItemEEP7QObject@Base 15.07.90
 _ZN7Akonadi7LinkJobD0Ev@Base 15.07.90
 _ZN7Akonadi7LinkJobD1Ev@Base 15.07.90
 _ZN7Akonadi7LinkJobD2Ev@Base 15.07.90
 _ZN7Akonadi7Monitor10itemLinkedERKNS_4ItemERKNS_10CollectionE@Base 15.07.90
 _ZN7Akonadi7Monitor10itemsMovedERK7QVectorINS_4ItemEERKNS_10CollectionES8_@Base 15.07.90
 _ZN7Akonadi7Monitor10setSessionEPNS_7SessionE@Base 15.07.90
 _ZN7Akonadi7Monitor10tagChangedERKNS_3TagE@Base 15.07.90
 _ZN7Akonadi7Monitor10tagRemovedERKNS_3TagE@Base 15.07.90
 _ZN7Akonadi7Monitor11itemChangedERKNS_4ItemERK4QSetI10QByteArrayE@Base 15.07.90
 _ZN7Akonadi7Monitor11itemRemovedERKNS_4ItemE@Base 15.07.90
 _ZN7Akonadi7Monitor11itemsLinkedERK7QVectorINS_4ItemEERKNS_10CollectionE@Base 15.07.90
 _ZN7Akonadi7Monitor11qt_metacallEN11QMetaObject4CallEiPPv@Base 15.07.90
 _ZN7Akonadi7Monitor11qt_metacastEPKc@Base 15.07.90
 _ZN7Akonadi7Monitor12allMonitoredEb@Base 15.07.90
 _ZN7Akonadi7Monitor12itemUnlinkedERKNS_4ItemERKNS_10CollectionE@Base 15.07.90
 _ZN7Akonadi7Monitor12itemsRemovedERK7QVectorINS_4ItemEE@Base 15.07.90
 _ZN7Akonadi7Monitor12setExclusiveEb@Base 15.07.90
 _ZN7Akonadi7Monitor12tagMonitoredERKNS_3TagEb@Base 15.07.90
 _ZN7Akonadi7Monitor13ignoreSessionEPNS_7SessionE@Base 15.07.90
 _ZN7Akonadi7Monitor13itemMonitoredERKNS_4ItemEb@Base 15.07.90
 _ZN7Akonadi7Monitor13itemsUnlinkedERK7QVectorINS_4ItemEERKNS_10CollectionE@Base 15.07.90
 _ZN7Akonadi7Monitor13relationAddedERKNS_8RelationE@Base 15.07.90
 _ZN7Akonadi7Monitor13tagFetchScopeEv@Base 15.07.90
 _ZN7Akonadi7Monitor13typeMonitoredENS0_4TypeEb@Base 15.07.90
 _ZN7Akonadi7Monitor14itemFetchScopeEv@Base 15.07.90
 _ZN7Akonadi7Monitor15collectionAddedERKNS_10CollectionES3_@Base 15.07.90
 _ZN7Akonadi7Monitor15collectionMovedERKNS_10CollectionES3_S3_@Base 15.07.90
 _ZN7Akonadi7Monitor15fetchCollectionEb@Base 15.07.90
 _ZN7Akonadi7Monitor15relationRemovedERKNS_8RelationE@Base 15.07.90
 _ZN7Akonadi7Monitor15setAllMonitoredEb@Base 15.07.90
 _ZN7Akonadi7Monitor15setTagMonitoredERKNS_3TagEb@Base 15.07.90
 _ZN7Akonadi7Monitor16fetchChangedOnlyEb@Base 15.07.90
 _ZN7Akonadi7Monitor16itemsTagsChangedERK7QVectorINS_4ItemEERK4QSetINS_3TagEESA_@Base 15.07.90
 _ZN7Akonadi7Monitor16setItemMonitoredERKNS_4ItemEb@Base 15.07.90
 _ZN7Akonadi7Monitor16setTagFetchScopeERKNS_13TagFetchScopeE@Base 15.07.90
 _ZN7Akonadi7Monitor16setTypeMonitoredENS0_4TypeEb@Base 15.07.90
 _ZN7Akonadi7Monitor16staticMetaObjectE@Base 15.07.90
 _ZN7Akonadi7Monitor17collectionChangedERKNS_10CollectionE@Base 15.07.90
 _ZN7Akonadi7Monitor17collectionChangedERKNS_10CollectionERK4QSetI10QByteArrayE@Base 15.07.90
 _ZN7Akonadi7Monitor17collectionRemovedERKNS_10CollectionE@Base 15.07.90
 _ZN7Akonadi7Monitor17itemsFlagsChangedERK7QVectorINS_4ItemEERK4QSetI10QByteArrayESA_@Base 15.07.90
 _ZN7Akonadi7Monitor17mimeTypeMonitoredERK7QStringb@Base 15.07.90
 _ZN7Akonadi7Monitor17resourceMonitoredERK10QByteArrayb@Base 15.07.90
 _ZN7Akonadi7Monitor17setItemFetchScopeERKNS_14ItemFetchScopeE@Base 15.07.90
 _ZN7Akonadi7Monitor19collectionMonitoredERKNS_10CollectionEb@Base 15.07.90
 _ZN7Akonadi7Monitor20collectionFetchScopeEv@Base 15.07.90
 _ZN7Akonadi7Monitor20collectionSubscribedERKNS_10CollectionES3_@Base 15.07.90
 _ZN7Akonadi7Monitor20setMimeTypeMonitoredERK7QStringb@Base 15.07.90
 _ZN7Akonadi7Monitor20setResourceMonitoredERK10QByteArrayb@Base 15.07.90
 _ZN7Akonadi7Monitor21itemsRelationsChangedERK7QVectorINS_4ItemEERKS1_INS_8RelationEES9_@Base 15.07.90
 _ZN7Akonadi7Monitor22collectionUnsubscribedERKNS_10CollectionE@Base 15.07.90
 _ZN7Akonadi7Monitor22setCollectionMonitoredERKNS_10CollectionEb@Base 15.07.90
 _ZN7Akonadi7Monitor23setCollectionFetchScopeERKNS_20CollectionFetchScopeE@Base 15.07.90
 _ZN7Akonadi7Monitor25fetchCollectionStatisticsEb@Base 15.07.90
 _ZN7Akonadi7Monitor27collectionStatisticsChangedExRKNS_20CollectionStatisticsE@Base 15.07.90
 _ZN7Akonadi7Monitor35setCollectionMoveTranslationEnabledEb@Base 15.07.90
 _ZN7Akonadi7Monitor8tagAddedERKNS_3TagE@Base 15.07.90
 _ZN7Akonadi7Monitor9itemAddedERKNS_4ItemERKNS_10CollectionE@Base 15.07.90
 _ZN7Akonadi7Monitor9itemMovedERKNS_4ItemERKNS_10CollectionES6_@Base 15.07.90
 _ZN7Akonadi7MonitorC1EP7QObject@Base 15.07.90
 _ZN7Akonadi7MonitorC1EPNS_14MonitorPrivateEP7QObject@Base 15.07.90
 _ZN7Akonadi7MonitorC2EP7QObject@Base 15.07.90
 _ZN7Akonadi7MonitorC2EPNS_14MonitorPrivateEP7QObject@Base 15.07.90
 _ZN7Akonadi7MonitorD0Ev@Base 15.07.90
 _ZN7Akonadi7MonitorD1Ev@Base 15.07.90
 _ZN7Akonadi7MonitorD2Ev@Base 15.07.90
 _ZN7Akonadi7Session11qt_metacallEN11QMetaObject4CallEiPPv@Base 15.07.90
 _ZN7Akonadi7Session11qt_metacastEPKc@Base 15.07.90
 _ZN7Akonadi7Session11reconnectedEv@Base 15.07.90
 _ZN7Akonadi7Session14defaultSessionEv@Base 15.07.90
 _ZN7Akonadi7Session16staticMetaObjectE@Base 15.07.90
 _ZN7Akonadi7Session5clearEv@Base 15.07.90
 _ZN7Akonadi7SessionC1EPNS_14SessionPrivateERK10QByteArrayP7QObject@Base 15.07.90
 _ZN7Akonadi7SessionC1ERK10QByteArrayP7QObject@Base 15.07.90
 _ZN7Akonadi7SessionC2EPNS_14SessionPrivateERK10QByteArrayP7QObject@Base 15.07.90
 _ZN7Akonadi7SessionC2ERK10QByteArrayP7QObject@Base 15.07.90
 _ZN7Akonadi7SessionD0Ev@Base 15.07.90
 _ZN7Akonadi7SessionD1Ev@Base 15.07.90
 _ZN7Akonadi7SessionD2Ev@Base 15.07.90
 _ZN7Akonadi8Internal10clientTypeEv@Base 15.07.90
 _ZN7Akonadi8Internal10xdgSaveDirEPKcRK7QString@Base 15.07.90
 _ZN7Akonadi8Internal13setClientTypeENS0_10ClientTypeE@Base 15.07.90
 _ZN7Akonadi8Internal21serverProtocolVersionEv@Base 15.07.90
 _ZN7Akonadi8Internal24setServerProtocolVersionEi@Base 15.07.90
 _ZN7Akonadi8ItemSync10fetchScopeEv@Base 15.07.90
 _ZN7Akonadi8ItemSync10slotResultEP4KJob@Base 15.07.90
 _ZN7Akonadi8ItemSync11qt_metacallEN11QMetaObject4CallEiPPv@Base 15.07.90
 _ZN7Akonadi8ItemSync11qt_metacastEPKc@Base 15.07.90
 _ZN7Akonadi8ItemSync12deliveryDoneEv@Base 15.07.90
 _ZN7Akonadi8ItemSync12setBatchSizeEi@Base 15.07.90
 _ZN7Akonadi8ItemSync12setMergeModeENS0_9MergeModeE@Base 4:15.08.0+git20150717.1756+15.04
 _ZN7Akonadi8ItemSync13setFetchScopeERNS_14ItemFetchScopeE@Base 15.07.90
 _ZN7Akonadi8ItemSync13setTotalItemsEi@Base 15.07.90
 _ZN7Akonadi8ItemSync16setFullSyncItemsERK7QVectorINS_4ItemEE@Base 15.07.90
 _ZN7Akonadi8ItemSync16staticMetaObjectE@Base 15.07.90
 _ZN7Akonadi8ItemSync17readyForNextBatchEi@Base 15.07.90
 _ZN7Akonadi8ItemSync18setTransactionModeENS0_15TransactionModeE@Base 15.07.90
 _ZN7Akonadi8ItemSync19setStreamingEnabledEb@Base 15.07.90
 _ZN7Akonadi8ItemSync20transactionCommittedEv@Base 15.07.90
 _ZN7Akonadi8ItemSync23setIncrementalSyncItemsERK7QVectorINS_4ItemEES5_@Base 15.07.90
 _ZN7Akonadi8ItemSync31setDisableAutomaticDeliveryDoneEb@Base 15.07.90
 _ZN7Akonadi8ItemSync7doStartEv@Base 15.07.90
 _ZN7Akonadi8ItemSync8rollbackEv@Base 15.07.90
 _ZN7Akonadi8ItemSyncC1ERKNS_10CollectionEP7QObject@Base 15.07.90
 _ZN7Akonadi8ItemSyncC2ERKNS_10CollectionEP7QObject@Base 15.07.90
 _ZN7Akonadi8ItemSyncD0Ev@Base 15.07.90
 _ZN7Akonadi8ItemSyncD1Ev@Base 15.07.90
 _ZN7Akonadi8ItemSyncD2Ev@Base 15.07.90
 _ZN7Akonadi8Relation7GENERICE@Base 15.07.90
 _ZN7Akonadi8Relation7setLeftERKNS_4ItemE@Base 15.07.90
 _ZN7Akonadi8Relation8setRightERKNS_4ItemE@Base 15.07.90
 _ZN7Akonadi8RelationC1ERK10QByteArrayRKNS_4ItemES6_@Base 15.07.90
 _ZN7Akonadi8RelationC1ERKS0_@Base 15.07.90
 _ZN7Akonadi8RelationC1Ev@Base 15.07.90
 _ZN7Akonadi8RelationC2ERK10QByteArrayRKNS_4ItemES6_@Base 15.07.90
 _ZN7Akonadi8RelationC2ERKS0_@Base 15.07.90
 _ZN7Akonadi8RelationC2Ev@Base 15.07.90
 _ZN7Akonadi8RelationD1Ev@Base 15.07.90
 _ZN7Akonadi8RelationD2Ev@Base 15.07.90
 _ZN7Akonadi8RelationaSERKS0_@Base 15.07.90
 _ZN7Akonadi8TagModel10insertRowsEiiRK11QModelIndex@Base 15.07.90
 _ZN7Akonadi8TagModel10removeRowsEiiRK11QModelIndex@Base 15.07.90
 _ZN7Akonadi8TagModel11qt_metacallEN11QMetaObject4CallEiPPv@Base 15.07.90
 _ZN7Akonadi8TagModel11qt_metacastEPKc@Base 15.07.90
 _ZN7Akonadi8TagModel13insertColumnsEiiRK11QModelIndex@Base 15.07.90
 _ZN7Akonadi8TagModel13removeColumnsEiiRK11QModelIndex@Base 15.07.90
 _ZN7Akonadi8TagModel16staticMetaObjectE@Base 15.07.90
 _ZN7Akonadi8TagModel9populatedEv@Base 15.07.90
 _ZN7Akonadi8TagModelC1EPNS_7MonitorEP7QObject@Base 15.07.90
 _ZN7Akonadi8TagModelC1EPNS_7MonitorEPNS_15TagModelPrivateEP7QObject@Base 15.07.90
 _ZN7Akonadi8TagModelC2EPNS_7MonitorEP7QObject@Base 15.07.90
 _ZN7Akonadi8TagModelC2EPNS_7MonitorEPNS_15TagModelPrivateEP7QObject@Base 15.07.90
 _ZN7Akonadi8TagModelD0Ev@Base 15.07.90
 _ZN7Akonadi8TagModelD1Ev@Base 15.07.90
 _ZN7Akonadi8TagModelD2Ev@Base 15.07.90
 _ZN7Akonadi8TrashJob11qt_metacallEN11QMetaObject4CallEiPPv@Base 15.07.90
 _ZN7Akonadi8TrashJob11qt_metacastEPKc@Base 15.07.90
 _ZN7Akonadi8TrashJob15TrashJobPrivate12selectResultEP4KJob@Base 15.07.90
 _ZN7Akonadi8TrashJob15TrashJobPrivate12setAttributeEP4KJob@Base 15.07.90
 _ZN7Akonadi8TrashJob15TrashJobPrivate12setAttributeERK7QVectorINS_10CollectionEE@Base 15.07.90
 _ZN7Akonadi8TrashJob15TrashJobPrivate12setAttributeERK7QVectorINS_4ItemEE@Base 15.07.90
 _ZN7Akonadi8TrashJob15TrashJobPrivate13itemsReceivedERK7QVectorINS_4ItemEE@Base 15.07.90
 _ZN7Akonadi8TrashJob15TrashJobPrivate19collectionsReceivedERK7QVectorINS_10CollectionEE@Base 15.07.90
 _ZN7Akonadi8TrashJob15TrashJobPrivate24parentCollectionReceivedERK7QVectorINS_10CollectionEE@Base 15.07.90
 _ZN7Akonadi8TrashJob15deleteIfInTrashEb@Base 15.07.90
 _ZN7Akonadi8TrashJob16staticMetaObjectE@Base 15.07.90
 _ZN7Akonadi8TrashJob18setTrashCollectionERKNS_10CollectionE@Base 15.07.90
 _ZN7Akonadi8TrashJob21keepTrashInCollectionEb@Base 15.07.90
 _ZN7Akonadi8TrashJob7doStartEv@Base 15.07.90
 _ZN7Akonadi8TrashJobC1ERK7QVectorINS_4ItemEEP7QObject@Base 15.07.90
 _ZN7Akonadi8TrashJobC1ERKNS_10CollectionEP7QObject@Base 15.07.90
 _ZN7Akonadi8TrashJobC1ERKNS_4ItemEP7QObject@Base 15.07.90
 _ZN7Akonadi8TrashJobC2ERK7QVectorINS_4ItemEEP7QObject@Base 15.07.90
 _ZN7Akonadi8TrashJobC2ERKNS_10CollectionEP7QObject@Base 15.07.90
 _ZN7Akonadi8TrashJobC2ERKNS_4ItemEP7QObject@Base 15.07.90
 _ZN7Akonadi8TrashJobD0Ev@Base 15.07.90
 _ZN7Akonadi8TrashJobD1Ev@Base 15.07.90
 _ZN7Akonadi8TrashJobD2Ev@Base 15.07.90
 _ZN7Akonadi9AgentTypeC1ERKS0_@Base 15.07.90
 _ZN7Akonadi9AgentTypeC1Ev@Base 15.07.90
 _ZN7Akonadi9AgentTypeC2ERKS0_@Base 15.07.90
 _ZN7Akonadi9AgentTypeC2Ev@Base 15.07.90
 _ZN7Akonadi9AgentTypeD1Ev@Base 15.07.90
 _ZN7Akonadi9AgentTypeD2Ev@Base 15.07.90
 _ZN7Akonadi9AgentTypeaSERKS0_@Base 15.07.90
 _ZN7Akonadi9AttributeD0Ev@Base 15.07.90
 _ZN7Akonadi9AttributeD1Ev@Base 15.07.90
 _ZN7Akonadi9AttributeD2Ev@Base 15.07.90
 _ZN7Akonadi9ExceptionC1EPKc@Base 15.07.90
 _ZN7Akonadi9ExceptionC1ERK10QByteArray@Base 15.07.90
 _ZN7Akonadi9ExceptionC1ERK7QString@Base 15.07.90
 _ZN7Akonadi9ExceptionC1ERKS0_@Base 15.07.90
 _ZN7Akonadi9ExceptionC2EPKc@Base 15.07.90
 _ZN7Akonadi9ExceptionC2ERK10QByteArray@Base 15.07.90
 _ZN7Akonadi9ExceptionC2ERK7QString@Base 15.07.90
 _ZN7Akonadi9ExceptionC2ERKS0_@Base 15.07.90
 _ZN7Akonadi9ExceptionD0Ev@Base 15.07.90
 _ZN7Akonadi9ExceptionD1Ev@Base 15.07.90
 _ZN7Akonadi9ExceptionD2Ev@Base 15.07.90
 _ZN7Akonadi9ItemModel10fetchScopeEv@Base 15.07.90
 _ZN7Akonadi9ItemModel11qt_metacallEN11QMetaObject4CallEiPPv@Base 15.07.90
 _ZN7Akonadi9ItemModel11qt_metacastEPKc@Base 15.07.90
 _ZN7Akonadi9ItemModel12dropMimeDataEPK9QMimeDataN2Qt10DropActionEiiRK11QModelIndex@Base 15.07.90
 _ZN7Akonadi9ItemModel13setCollectionERKNS_10CollectionE@Base 15.07.90
 _ZN7Akonadi9ItemModel13setFetchScopeERKNS_14ItemFetchScopeE@Base 15.07.90
 _ZN7Akonadi9ItemModel16staticMetaObjectE@Base 15.07.90
 _ZN7Akonadi9ItemModel17collectionChangedERKNS_10CollectionE@Base 15.07.90
 _ZN7Akonadi9ItemModel7Private10itemsAddedERK7QVectorINS_4ItemEE@Base 15.07.90
 _ZN7Akonadi9ItemModel7Private10rowForItemERKNS_4ItemE@Base 15.07.90
 _ZN7Akonadi9ItemModel7Private11itemChangedERKNS_4ItemERK4QSetI10QByteArrayE@Base 15.07.90
 _ZN7Akonadi9ItemModel7Private11itemRemovedERKNS_4ItemE@Base 15.07.90
 _ZN7Akonadi9ItemModel7Private11listingDoneEP4KJob@Base 15.07.90
 _ZN7Akonadi9ItemModel7Private21collectionFetchResultEP4KJob@Base 15.07.90
 _ZN7Akonadi9ItemModel7Private9itemAddedERKNS_4ItemE@Base 15.07.90
 _ZN7Akonadi9ItemModel7Private9itemMovedERKNS_4ItemERKNS_10CollectionES7_@Base 15.07.90
 _ZN7Akonadi9ItemModelC1EP7QObject@Base 15.07.90
 _ZN7Akonadi9ItemModelC2EP7QObject@Base 15.07.90
 _ZN7Akonadi9ItemModelD0Ev@Base 15.07.90
 _ZN7Akonadi9ItemModelD1Ev@Base 15.07.90
 _ZN7Akonadi9ItemModelD2Ev@Base 15.07.90
 _ZN7Akonadi9UnlinkJob11qt_metacallEN11QMetaObject4CallEiPPv@Base 15.07.90
 _ZN7Akonadi9UnlinkJob11qt_metacastEPKc@Base 15.07.90
 _ZN7Akonadi9UnlinkJob16doHandleResponseExRKNS_8Protocol7CommandE@Base 15.07.90
 _ZN7Akonadi9UnlinkJob16staticMetaObjectE@Base 15.07.90
 _ZN7Akonadi9UnlinkJob7doStartEv@Base 15.07.90
 _ZN7Akonadi9UnlinkJobC1ERKNS_10CollectionERK7QVectorINS_4ItemEEP7QObject@Base 15.07.90
 _ZN7Akonadi9UnlinkJobC2ERKNS_10CollectionERK7QVectorINS_4ItemEEP7QObject@Base 15.07.90
 _ZN7Akonadi9UnlinkJobD0Ev@Base 15.07.90
 _ZN7Akonadi9UnlinkJobD1Ev@Base 15.07.90
 _ZN7Akonadi9UnlinkJobD2Ev@Base 15.07.90
 _ZN7TagSync10slotResultEP4KJob@Base 15.07.90
 _ZN7TagSync11qt_metacallEN11QMetaObject4CallEiPPv@Base 15.07.90
 _ZN7TagSync11qt_metacastEPKc@Base 15.07.90
 _ZN7TagSync13setTagMembersERK5QHashI7QString7QVectorIN7Akonadi4ItemEEE@Base 15.07.90
 _ZN7TagSync14setFullTagListERK5QListIN7Akonadi3TagEE@Base 15.07.90
 _ZN7TagSync15onCreateTagDoneEP4KJob@Base 15.07.90
 _ZN7TagSync16staticMetaObjectE@Base 15.07.90
 _ZN7TagSync19onLocalTagFetchDoneEP4KJob@Base 15.07.90
 _ZN7TagSync19onTagItemsFetchDoneEP4KJob@Base 15.07.90
 _ZN7TagSync7doStartEv@Base 15.07.90
 _ZN7TagSync8diffTagsEv@Base 15.07.90
 _ZN7TagSync9checkDoneEv@Base 15.07.90
 _ZN7TagSync9onJobDoneEP4KJob@Base 15.07.90
 _ZN7TagSyncC1EP7QObject@Base 15.07.90
 _ZN7TagSyncC2EP7QObject@Base 15.07.90
 _ZN7TagSyncD0Ev@Base 15.07.90
 _ZN7TagSyncD1Ev@Base 15.07.90
 _ZN7TagSyncD2Ev@Base 15.07.90
 _ZN9QHashData9hasShrunkEv@Base 15.07.90
 _ZNK10QByteArray7isEmptyEv@Base 15.07.90
 (optional=templinst)_ZNK12KConfigGroup9readEntryIxEE5QListIT_EPKcRKS3_@Base 15.07.90
 (optional=templinst|arch=amd64)_ZNK12KConfigGroup9readEntryIxEET_PKcRKS1_@Base 15.07.90
 _ZNK12RelationSync10metaObjectEv@Base 15.07.90
 _ZNK33CollectionIdentificationAttribute10identifierEv@Base 15.07.90
 _ZNK33CollectionIdentificationAttribute10serializedEv@Base 15.07.90
 _ZNK33CollectionIdentificationAttribute19collectionNamespaceEv@Base 15.07.90
 _ZNK33CollectionIdentificationAttribute2ouEv@Base 15.07.90
 _ZNK33CollectionIdentificationAttribute4mailEv@Base 15.07.90
 _ZNK33CollectionIdentificationAttribute4nameEv@Base 15.07.90
 _ZNK33CollectionIdentificationAttribute4typeEv@Base 15.07.90
 _ZNK33CollectionIdentificationAttribute5cloneEv@Base 15.07.90
 _ZNK7Akonadi10Collection10referencedEv@Base 15.07.90
 _ZNK7Akonadi10Collection10shouldListENS0_11ListPurposeE@Base 15.07.90
 _ZNK7Akonadi10Collection10statisticsEv@Base 15.07.90
 _ZNK7Akonadi10Collection11cachePolicyEv@Base 15.07.90
 _ZNK7Akonadi10Collection11displayNameEv@Base 15.07.90
 _ZNK7Akonadi10Collection16contentMimeTypesEv@Base 15.07.90
 _ZNK7Akonadi10Collection16keepLocalChangesEv@Base 15.07.90
 _ZNK7Akonadi10Collection19localListPreferenceENS0_11ListPurposeE@Base 15.07.90
 _ZNK7Akonadi10Collection3urlENS0_7UrlTypeE@Base 15.07.90
 _ZNK7Akonadi10Collection4nameEv@Base 15.07.90
 _ZNK7Akonadi10Collection6d_funcEv@Base 15.07.90
 _ZNK7Akonadi10Collection6rightsEv@Base 15.07.90
 _ZNK7Akonadi10Collection7enabledEv@Base 15.07.90
 _ZNK7Akonadi10Collection8resourceEv@Base 15.07.90
 _ZNK7Akonadi10Collection9isVirtualEv@Base 15.07.90
 _ZNK7Akonadi10GetLockJob10metaObjectEv@Base 15.07.90
 _ZNK7Akonadi10SearchTerm3keyEv@Base 15.07.90
 _ZNK7Akonadi10SearchTerm5valueEv@Base 15.07.90
 _ZNK7Akonadi10SearchTerm6isNullEv@Base 15.07.90
 _ZNK7Akonadi10SearchTerm8relationEv@Base 15.07.90
 _ZNK7Akonadi10SearchTerm8subTermsEv@Base 15.07.90
 _ZNK7Akonadi10SearchTerm9conditionEv@Base 15.07.90
 _ZNK7Akonadi10SearchTerm9isNegatedEv@Base 15.07.90
 _ZNK7Akonadi10SearchTermeqERKS0_@Base 15.07.90
 _ZNK7Akonadi11CachePolicy10localPartsEv@Base 15.07.90
 _ZNK7Akonadi11CachePolicy12cacheTimeoutEv@Base 15.07.90
 _ZNK7Akonadi11CachePolicy12syncOnDemandEv@Base 15.07.90
 _ZNK7Akonadi11CachePolicy17inheritFromParentEv@Base 15.07.90
 _ZNK7Akonadi11CachePolicy17intervalCheckTimeEv@Base 15.07.90
 _ZNK7Akonadi11CachePolicyeqERKS0_@Base 15.07.90
 _ZNK7Akonadi11ItemCopyJob10metaObjectEv@Base 15.07.90
 _ZNK7Akonadi11ItemMonitor4itemEv@Base 15.07.90
 _ZNK7Akonadi11ItemMonitor7Private10metaObjectEv@Base 15.07.90
 _ZNK7Akonadi11ItemMoveJob10metaObjectEv@Base 15.07.90
 _ZNK7Akonadi11ItemMoveJob21destinationCollectionEv@Base 15.07.90
 _ZNK7Akonadi11ItemMoveJob5itemsEv@Base 15.07.90
 _ZNK7Akonadi11PartFetcher10metaObjectEv@Base 15.07.90
 _ZNK7Akonadi11PartFetcher4itemEv@Base 15.07.90
 _ZNK7Akonadi11PartFetcher5indexEv@Base 15.07.90
 _ZNK7Akonadi11PartFetcher8partNameEv@Base 15.07.90
 _ZNK7Akonadi11SearchQuery4termEv@Base 15.07.90
 _ZNK7Akonadi11SearchQuery5limitEv@Base 15.07.90
 _ZNK7Akonadi11SearchQuery6isNullEv@Base 15.07.90
 _ZNK7Akonadi11SearchQuery6toJSONEv@Base 15.07.90
 _ZNK7Akonadi11SearchQueryeqERKS0_@Base 15.07.90
 _ZNK7Akonadi11TagFetchJob10metaObjectEv@Base 15.07.90
 _ZNK7Akonadi11TagFetchJob4tagsEv@Base 15.07.90
 _ZNK7Akonadi12AgentManager10metaObjectEv@Base 15.07.90
 _ZNK7Akonadi12AgentManager4typeERK7QString@Base 15.07.90
 _ZNK7Akonadi12AgentManager5typesEv@Base 15.07.90
 _ZNK7Akonadi12AgentManager8instanceERK7QString@Base 15.07.90
 _ZNK7Akonadi12AgentManager9instancesEv@Base 15.07.90
 _ZNK7Akonadi12ItemFetchJob10metaObjectEv@Base 15.07.90
 _ZNK7Akonadi12ItemFetchJob15deliveryOptionsEv@Base 15.07.90
 _ZNK7Akonadi12ItemFetchJob5countEv@Base 15.07.90
 _ZNK7Akonadi12ItemFetchJob5itemsEv@Base 15.07.90
 _ZNK7Akonadi12PluginLoader11infoForNameERK7QString@Base 15.07.90
 _ZNK7Akonadi12PluginLoader5namesEv@Base 15.07.90
 _ZNK7Akonadi12TagAttribute10serializedEv@Base 15.07.90
 _ZNK7Akonadi12TagAttribute11displayNameEv@Base 15.07.90
 _ZNK7Akonadi12TagAttribute15backgroundColorEv@Base 15.07.90
 _ZNK7Akonadi12TagAttribute4fontEv@Base 15.07.90
 _ZNK7Akonadi12TagAttribute4typeEv@Base 15.07.90
 _ZNK7Akonadi12TagAttribute5cloneEv@Base 15.07.90
 _ZNK7Akonadi12TagAttribute8iconNameEv@Base 15.07.90
 _ZNK7Akonadi12TagAttribute8priorityEv@Base 15.07.90
 _ZNK7Akonadi12TagAttribute8shortcutEv@Base 15.07.90
 _ZNK7Akonadi12TagAttribute9inToolbarEv@Base 15.07.90
 _ZNK7Akonadi12TagAttribute9textColorEv@Base 15.07.90
 _ZNK7Akonadi12TagCreateJob10metaObjectEv@Base 15.07.90
 _ZNK7Akonadi12TagCreateJob3tagEv@Base 15.07.90
 _ZNK7Akonadi12TagDeleteJob10metaObjectEv@Base 15.07.90
 _ZNK7Akonadi12TagDeleteJob4tagsEv@Base 15.07.90
 _ZNK7Akonadi12TagModifyJob10metaObjectEv@Base 15.07.90
 _ZNK7Akonadi13AgentInstance10identifierEv@Base 15.07.90
 _ZNK7Akonadi13AgentInstance11reconfigureEv@Base 15.07.90
 _ZNK7Akonadi13AgentInstance13statusMessageEv@Base 15.07.90
 _ZNK7Akonadi13AgentInstance16abortCurrentTaskEv@Base 15.07.90
 _ZNK7Akonadi13AgentInstance4nameEv@Base 15.07.90
 _ZNK7Akonadi13AgentInstance4typeEv@Base 15.07.90
 _ZNK7Akonadi13AgentInstance6statusEv@Base 15.07.90
 _ZNK7Akonadi13AgentInstance7isValidEv@Base 15.07.90
 _ZNK7Akonadi13AgentInstance7restartEv@Base 15.07.90
 _ZNK7Akonadi13AgentInstance8isOnlineEv@Base 15.07.90
 _ZNK7Akonadi13AgentInstance8progressEv@Base 15.07.90
 _ZNK7Akonadi13AgentInstanceeqERKS0_@Base 15.07.90
 _ZNK7Akonadi13ItemCreateJob10metaObjectEv@Base 15.07.90
 _ZNK7Akonadi13ItemCreateJob4itemEv@Base 15.07.90
 _ZNK7Akonadi13ItemDeleteJob10metaObjectEv@Base 15.07.90
 _ZNK7Akonadi13ItemDeleteJob12deletedItemsEv@Base 15.07.90
 _ZNK7Akonadi13ItemModifyJob10metaObjectEv@Base 15.07.90
 _ZNK7Akonadi13ItemModifyJob13ignorePayloadEv@Base 15.07.90
 _ZNK7Akonadi13ItemModifyJob4itemEv@Base 15.07.90
 _ZNK7Akonadi13ItemModifyJob5itemsEv@Base 15.07.90
 _ZNK7Akonadi13ItemModifyJob9updateGidEv@Base 15.07.90
 _ZNK7Akonadi13ItemSearchJob10metaObjectEv@Base 15.07.90
 _ZNK7Akonadi13ItemSearchJob11isRecursiveEv@Base 15.07.90
 _ZNK7Akonadi13ItemSearchJob17searchCollectionsEv@Base 15.07.90
 _ZNK7Akonadi13ItemSearchJob21isRemoteSearchEnabledEv@Base 15.07.90
 _ZNK7Akonadi13ItemSearchJob5itemsEv@Base 15.07.90
 _ZNK7Akonadi13ItemSearchJob9mimeTypesEv@Base 15.07.90
 _ZNK7Akonadi13ServerManager10metaObjectEv@Base 15.07.90
 _ZNK7Akonadi13TagFetchScope10attributesEv@Base 15.07.90
 _ZNK7Akonadi13TagFetchScope11fetchIdOnlyEv@Base 15.07.90
 _ZNK7Akonadi14AgentTypeModel10metaObjectEv@Base 15.07.90
 _ZNK7Akonadi14AgentTypeModel11columnCountERK11QModelIndex@Base 15.07.90
 _ZNK7Akonadi14AgentTypeModel4dataERK11QModelIndexi@Base 15.07.90
 _ZNK7Akonadi14AgentTypeModel5flagsERK11QModelIndex@Base 15.07.90
 _ZNK7Akonadi14AgentTypeModel5indexEiiRK11QModelIndex@Base 15.07.90
 _ZNK7Akonadi14AgentTypeModel6parentERK11QModelIndex@Base 15.07.90
 _ZNK7Akonadi14AgentTypeModel8rowCountERK11QModelIndex@Base 15.07.90
 _ZNK7Akonadi14ChangeRecorder10metaObjectEv@Base 15.07.90
 _ZNK7Akonadi14ChangeRecorder28dumpNotificationListToStringEv@Base 15.07.90
 _ZNK7Akonadi14ChangeRecorder7isEmptyEv@Base 15.07.90
 _ZNK7Akonadi14CollectionSync10metaObjectEv@Base 15.07.90
 _ZNK7Akonadi14ItemFetchScope10attributesEv@Base 15.07.90
 _ZNK7Akonadi14ItemFetchScope11fullPayloadEv@Base 15.07.90
 _ZNK7Akonadi14ItemFetchScope12payloadPartsEv@Base 15.07.90
 _ZNK7Akonadi14ItemFetchScope13allAttributesEv@Base 15.07.90
 _ZNK7Akonadi14ItemFetchScope13tagFetchScopeEv@Base 15.07.90
 _ZNK7Akonadi14ItemFetchScope14fetchRelationsEv@Base 15.07.90
 _ZNK7Akonadi14ItemFetchScope17ancestorRetrievalEv@Base 15.07.90
 _ZNK7Akonadi14ItemFetchScope17fetchChangedSinceEv@Base 15.07.90
 _ZNK7Akonadi14ItemFetchScope21fetchModificationTimeEv@Base 15.07.90
 _ZNK7Akonadi14ItemFetchScope21ignoreRetrievalErrorsEv@Base 15.07.90
 _ZNK7Akonadi14ItemFetchScope22fetchVirtualReferencesEv@Base 15.07.90
 _ZNK7Akonadi14ItemFetchScope25fetchRemoteIdentificationEv@Base 15.07.90
 _ZNK7Akonadi14ItemFetchScope30checkForCachedPayloadPartsOnlyEv@Base 15.07.90
 _ZNK7Akonadi14ItemFetchScope7isEmptyEv@Base 15.07.90
 _ZNK7Akonadi14ItemFetchScope8fetchGidEv@Base 15.07.90
 _ZNK7Akonadi14ItemFetchScope9cacheOnlyEv@Base 15.07.90
 _ZNK7Akonadi14ItemFetchScope9fetchTagsEv@Base 15.07.90
 _ZNK7Akonadi14MonitorPrivate10fetchItemsEv@Base 15.07.90
 _ZNK7Akonadi14MonitorPrivate11isMonitoredEx@Base 15.07.90
 _ZNK7Akonadi14MonitorPrivate12pipelineSizeEv@Base 15.07.90
 _ZNK7Akonadi14MonitorPrivate12splitMessageERKNS_8Protocol18ChangeNotificationEb@Base 15.07.90
 _ZNK7Akonadi14MonitorPrivate15isLazilyIgnoredERKNS_8Protocol18ChangeNotificationEb@Base 15.07.90
 _ZNK7Akonadi14MonitorPrivate16fetchCollectionsEv@Base 15.07.90
 _ZNK7Akonadi14MonitorPrivate17checkBatchSupportERKNS_8Protocol18ChangeNotificationERbS5_@Base 15.07.90
 _ZNK7Akonadi14MonitorPrivate18acceptNotificationERKNS_8Protocol18ChangeNotificationE@Base 15.07.90
 _ZNK7Akonadi15AttributeEntity10attributesEv@Base 15.07.90
 _ZNK7Akonadi15AttributeEntity12hasAttributeERK10QByteArray@Base 15.07.90
 _ZNK7Akonadi15AttributeEntity17removedAttributesEv@Base 15.07.90
 _ZNK7Akonadi15AttributeEntity9attributeERK10QByteArray@Base 15.07.90
 _ZNK7Akonadi15CollectionModel10headerDataEiN2Qt11OrientationEi@Base 15.07.90
 _ZNK7Akonadi15CollectionModel10metaObjectEv@Base 15.07.90
 _ZNK7Akonadi15CollectionModel11columnCountERK11QModelIndex@Base 15.07.90
 _ZNK7Akonadi15CollectionModel15collectionForIdEx@Base 15.07.90
 _ZNK7Akonadi15CollectionModel20supportedDropActionsEv@Base 15.07.90
 _ZNK7Akonadi15CollectionModel4dataERK11QModelIndexi@Base 15.07.90
 _ZNK7Akonadi15CollectionModel5flagsERK11QModelIndex@Base 15.07.90
 _ZNK7Akonadi15CollectionModel5indexEiiRK11QModelIndex@Base 15.07.90
 _ZNK7Akonadi15CollectionModel6parentERK11QModelIndex@Base 15.07.90
 _ZNK7Akonadi15CollectionModel8mimeDataERK5QListI11QModelIndexE@Base 15.07.90
 _ZNK7Akonadi15CollectionModel8rowCountERK11QModelIndex@Base 15.07.90
 _ZNK7Akonadi15CollectionModel9mimeTypesEv@Base 15.07.90
 _ZNK7Akonadi15EntityCacheBase10metaObjectEv@Base 15.07.90
 _ZNK7Akonadi15EntityTreeModel10entityDataERKNS_10CollectionEii@Base 15.07.90
 _ZNK7Akonadi15EntityTreeModel10entityDataERKNS_4ItemEii@Base 15.07.90
 _ZNK7Akonadi15EntityTreeModel10headerDataEiN2Qt11OrientationEi@Base 15.07.90
 _ZNK7Akonadi15EntityTreeModel10listFilterEv@Base 15.07.90
 _ZNK7Akonadi15EntityTreeModel10metaObjectEv@Base 15.07.90
 _ZNK7Akonadi15EntityTreeModel11columnCountERK11QModelIndex@Base 15.07.90
 _ZNK7Akonadi15EntityTreeModel11entityMatchERKNS_10CollectionERK8QVariant6QFlagsIN2Qt9MatchFlagEE@Base 15.07.90
 _ZNK7Akonadi15EntityTreeModel11entityMatchERKNS_4ItemERK8QVariant6QFlagsIN2Qt9MatchFlagEE@Base 15.07.90
 _ZNK7Akonadi15EntityTreeModel11hasChildrenERK11QModelIndex@Base 15.07.90
 _ZNK7Akonadi15EntityTreeModel12canFetchMoreERK11QModelIndex@Base 15.07.90
 _ZNK7Akonadi15EntityTreeModel16entityHeaderDataEiN2Qt11OrientationEiNS0_11HeaderGroupE@Base 15.07.90
 _ZNK7Akonadi15EntityTreeModel16isFullyPopulatedEv@Base 15.07.90
 _ZNK7Akonadi15EntityTreeModel17entityColumnCountENS0_11HeaderGroupE@Base 15.07.90
 _ZNK7Akonadi15EntityTreeModel19includeUnsubscribedEv@Base 15.07.90
 _ZNK7Akonadi15EntityTreeModel19systemEntitiesShownEv@Base 15.07.90
 _ZNK7Akonadi15EntityTreeModel20supportedDropActionsEv@Base 15.07.90
 _ZNK7Akonadi15EntityTreeModel21includeRootCollectionEv@Base 15.07.90
 _ZNK7Akonadi15EntityTreeModel21isCollectionPopulatedEx@Base 15.07.90
 _ZNK7Akonadi15EntityTreeModel22itemPopulationStrategyEv@Base 15.07.90
 _ZNK7Akonadi15EntityTreeModel23collectionFetchStrategyEv@Base 15.07.90
 _ZNK7Akonadi15EntityTreeModel23isCollectionTreeFetchedEv@Base 15.07.90
 _ZNK7Akonadi15EntityTreeModel25rootCollectionDisplayNameEv@Base 15.07.90
 _ZNK7Akonadi15EntityTreeModel4dataERK11QModelIndexi@Base 15.07.90
 _ZNK7Akonadi15EntityTreeModel5flagsERK11QModelIndex@Base 15.07.90
 _ZNK7Akonadi15EntityTreeModel5indexEiiRK11QModelIndex@Base 15.07.90
 _ZNK7Akonadi15EntityTreeModel5matchERK11QModelIndexiRK8QVarianti6QFlagsIN2Qt9MatchFlagEE@Base 15.07.90
 _ZNK7Akonadi15EntityTreeModel6parentERK11QModelIndex@Base 15.07.90
 _ZNK7Akonadi15EntityTreeModel8mimeDataERK5QListI11QModelIndexE@Base 15.07.90
 _ZNK7Akonadi15EntityTreeModel8rowCountERK11QModelIndex@Base 15.07.90
 _ZNK7Akonadi15EntityTreeModel9mimeTypesEv@Base 15.07.90
 _ZNK7Akonadi15MimeTypeChecker12isWantedItemERKNS_4ItemE@Base 15.07.90
 _ZNK7Akonadi15MimeTypeChecker15wantedMimeTypesEv@Base 15.07.90
 _ZNK7Akonadi15MimeTypeChecker16isWantedMimeTypeERK7QString@Base 15.07.90
 _ZNK7Akonadi15MimeTypeChecker18isWantedCollectionERKNS_10CollectionE@Base 15.07.90
 _ZNK7Akonadi15MimeTypeChecker22containsWantedMimeTypeERK11QStringList@Base 15.07.90
 _ZNK7Akonadi15ResourceScanJob10metaObjectEv@Base 15.07.90
 _ZNK7Akonadi15ResourceScanJob10resourceIdEv@Base 15.07.90
 _ZNK7Akonadi15ResourceScanJob18specialCollectionsEv@Base 15.07.90
 _ZNK7Akonadi15ResourceScanJob22rootResourceCollectionEv@Base 15.07.90
 _ZNK7Akonadi15SearchCreateJob10metaObjectEv@Base 15.07.90
 _ZNK7Akonadi15SearchCreateJob11isRecursiveEv@Base 15.07.90
 _ZNK7Akonadi15SearchCreateJob15searchMimeTypesEv@Base 15.07.90
 _ZNK7Akonadi15SearchCreateJob17createdCollectionEv@Base 15.07.90
 _ZNK7Akonadi15SearchCreateJob17searchCollectionsEv@Base 15.07.90
 _ZNK7Akonadi15SearchCreateJob21isRemoteSearchEnabledEv@Base 15.07.90
 _ZNK7Akonadi15SearchResultJob10metaObjectEv@Base 15.07.90
 _ZNK7Akonadi15SearchResultJob8searchIdEv@Base 15.07.90
 _ZNK7Akonadi15SubscriptionJob10metaObjectEv@Base 15.07.90
 _ZNK7Akonadi15TrashRestoreJob10metaObjectEv@Base 15.07.90
 _ZNK7Akonadi15TrashRestoreJob5itemsEv@Base 15.07.90
 _ZNK7Akonadi16PayloadException4typeEv@Base 15.07.90
 _ZNK7Akonadi16RelationFetchJob10metaObjectEv@Base 15.07.90
 _ZNK7Akonadi16RelationFetchJob9relationsEv@Base 15.07.90
 _ZNK7Akonadi17CollectionCopyJob10metaObjectEv@Base 15.07.90
 _ZNK7Akonadi17CollectionMoveJob10metaObjectEv@Base 15.07.90
 _ZNK7Akonadi17RelationCreateJob10metaObjectEv@Base 15.07.90
 _ZNK7Akonadi17RelationCreateJob8relationEv@Base 15.07.90
 _ZNK7Akonadi17RelationDeleteJob10metaObjectEv@Base 15.07.90
 _ZNK7Akonadi17RelationDeleteJob8relationEv@Base 15.07.90
 _ZNK7Akonadi17ResourceSelectJob10metaObjectEv@Base 15.07.90
 _ZNK7Akonadi17SubscriptionModel10metaObjectEv@Base 15.07.90
 _ZNK7Akonadi17SubscriptionModel10subscribedEv@Base 15.07.90
 _ZNK7Akonadi17SubscriptionModel12unsubscribedEv@Base 15.07.90
 _ZNK7Akonadi17SubscriptionModel4dataERK11QModelIndexi@Base 15.07.90
 _ZNK7Akonadi17SubscriptionModel5flagsERK11QModelIndex@Base 15.07.90
 _ZNK7Akonadi18AgentInstanceModel10headerDataEiN2Qt11OrientationEi@Base 15.07.90
 _ZNK7Akonadi18AgentInstanceModel10metaObjectEv@Base 15.07.90
 _ZNK7Akonadi18AgentInstanceModel11columnCountERK11QModelIndex@Base 15.07.90
 _ZNK7Akonadi18AgentInstanceModel4dataERK11QModelIndexi@Base 15.07.90
 _ZNK7Akonadi18AgentInstanceModel5flagsERK11QModelIndex@Base 15.07.90
 _ZNK7Akonadi18AgentInstanceModel5indexEiiRK11QModelIndex@Base 15.07.90
 _ZNK7Akonadi18AgentInstanceModel6parentERK11QModelIndex@Base 15.07.90
 _ZNK7Akonadi18AgentInstanceModel8rowCountERK11QModelIndex@Base 15.07.90
 _ZNK7Akonadi18CollectionFetchJob10metaObjectEv@Base 15.07.90
 _ZNK7Akonadi18CollectionFetchJob11collectionsEv@Base 15.07.90
 _ZNK7Akonadi18DefaultResourceJob10metaObjectEv@Base 15.07.90
 _ZNK7Akonadi18InvalidateCacheJob10metaObjectEv@Base 15.07.90
 _ZNK7Akonadi18NotificationSource10identifierEv@Base 15.07.90
 _ZNK7Akonadi18NotificationSource10metaObjectEv@Base 15.07.90
 _ZNK7Akonadi18NotificationSource6sourceEv@Base 15.07.90
 _ZNK7Akonadi18SpecialCollections10collectionERK10QByteArrayRKNS_13AgentInstanceE@Base 15.07.90
 _ZNK7Akonadi18SpecialCollections10metaObjectEv@Base 15.07.90
 _ZNK7Akonadi18SpecialCollections13hasCollectionERK10QByteArrayRKNS_13AgentInstanceE@Base 15.07.90
 _ZNK7Akonadi18SpecialCollections17defaultCollectionERK10QByteArray@Base 15.07.90
 _ZNK7Akonadi18SpecialCollections20hasDefaultCollectionERK10QByteArray@Base 15.07.90
 _ZNK7Akonadi19CollectionCreateJob10collectionEv@Base 15.07.90
 _ZNK7Akonadi19CollectionCreateJob10metaObjectEv@Base 15.07.90
 _ZNK7Akonadi19CollectionDeleteJob10metaObjectEv@Base 15.07.90
 _ZNK7Akonadi19CollectionModifyJob10collectionEv@Base 15.07.90
 _ZNK7Akonadi19CollectionModifyJob10metaObjectEv@Base 15.07.90
 _ZNK7Akonadi19CollectionSelectJob10metaObjectEv@Base 15.07.90
 _ZNK7Akonadi19SelectionProxyModel10metaObjectEv@Base 15.07.90
 _ZNK7Akonadi19TransactionBeginJob10metaObjectEv@Base 15.07.90
 _ZNK7Akonadi19TransactionSequence10metaObjectEv@Base 15.07.90
 _ZNK7Akonadi20CollectionFetchScope10attributesEv@Base 15.07.90
 _ZNK7Akonadi20CollectionFetchScope10listFilterEv@Base 15.07.90
 _ZNK7Akonadi20CollectionFetchScope11fetchIdOnlyEv@Base 15.07.90
 _ZNK7Akonadi20CollectionFetchScope16contentMimeTypesEv@Base 15.07.90
 _ZNK7Akonadi20CollectionFetchScope17ancestorRetrievalEv@Base 15.07.90
 _ZNK7Akonadi20CollectionFetchScope17includeStatisticsEv@Base 15.07.90
 _ZNK7Akonadi20CollectionFetchScope18ancestorFetchScopeEv@Base 15.07.90
 _ZNK7Akonadi20CollectionFetchScope19includeUnsubscribedEv@Base 15.07.90
 _ZNK7Akonadi20CollectionFetchScope21ignoreRetrievalErrorsEv@Base 15.07.90
 _ZNK7Akonadi20CollectionFetchScope7isEmptyEv@Base 15.07.90
 _ZNK7Akonadi20CollectionFetchScope8resourceEv@Base 15.07.90
 _ZNK7Akonadi20CollectionStatistics11unreadCountEv@Base 15.07.90
 _ZNK7Akonadi20CollectionStatistics4sizeEv@Base 15.07.90
 _ZNK7Akonadi20CollectionStatistics5countEv@Base 15.07.90
 _ZNK7Akonadi20IndexPolicyAttribute10serializedEv@Base 15.07.90
 _ZNK7Akonadi20IndexPolicyAttribute15indexingEnabledEv@Base 15.07.90
 _ZNK7Akonadi20IndexPolicyAttribute4typeEv@Base 15.07.90
 _ZNK7Akonadi20IndexPolicyAttribute5cloneEv@Base 15.07.90
 _ZNK7Akonadi20ItemModifyJobPrivate11fullCommandEv@Base 15.07.90
 _ZNK7Akonadi20ItemModifyJobPrivate18jobDebuggingStringEv@Base 15.07.90
 _ZNK7Akonadi20ItemSerializerPlugin5partsERKNS_4ItemE@Base 15.07.90
 _ZNK7Akonadi20StatisticsProxyModel10headerDataEiN2Qt11OrientationEi@Base 15.07.90
 _ZNK7Akonadi20StatisticsProxyModel10metaObjectEv@Base 15.07.90
 _ZNK7Akonadi20StatisticsProxyModel11columnCountERK11QModelIndex@Base 15.07.90
 _ZNK7Akonadi20StatisticsProxyModel11mapToSourceERK11QModelIndex@Base 15.07.90
 _ZNK7Akonadi20StatisticsProxyModel13mapFromSourceERK11QModelIndex@Base 15.07.90
 _ZNK7Akonadi20StatisticsProxyModel16isToolTipEnabledEv@Base 15.07.90
 _ZNK7Akonadi20StatisticsProxyModel20mapSelectionToSourceERK14QItemSelection@Base 15.07.90
 _ZNK7Akonadi20StatisticsProxyModel21isExtraColumnsEnabledEv@Base 15.07.90
 _ZNK7Akonadi20StatisticsProxyModel4dataERK11QModelIndexi@Base 15.07.90
 _ZNK7Akonadi20StatisticsProxyModel5buddyERK11QModelIndex@Base 15.07.90
 _ZNK7Akonadi20StatisticsProxyModel5flagsERK11QModelIndex@Base 15.07.90
 _ZNK7Akonadi20StatisticsProxyModel5indexEiiRK11QModelIndex@Base 15.07.90
 _ZNK7Akonadi20StatisticsProxyModel5matchERK11QModelIndexiRK8QVarianti6QFlagsIN2Qt9MatchFlagEE@Base 15.07.90
 _ZNK7Akonadi20StatisticsProxyModel6parentERK11QModelIndex@Base 15.07.90
 _ZNK7Akonadi20StatisticsProxyModel7Private24sourceIndexAtFirstColumnERK11QModelIndex@Base 15.07.90
 _ZNK7Akonadi20TransactionCommitJob10metaObjectEv@Base 15.07.90
 _ZNK7Akonadi21AgentFilterProxyModel10metaObjectEv@Base 15.07.90
 _ZNK7Akonadi21AgentFilterProxyModel16filterAcceptsRowEiRK11QModelIndex@Base 15.07.90
 _ZNK7Akonadi21AsyncSelectionHandler10metaObjectEv@Base 15.07.90
 _ZNK7Akonadi21ChangeRecorderPrivate12pipelineSizeEv@Base 15.07.90
 _ZNK7Akonadi21ChangeRecorderPrivate21notificationsFileNameEv@Base 15.07.90
 _ZNK7Akonadi21ChangeRecorderPrivate28dumpNotificationListToStringEv@Base 15.07.90
 _ZNK7Akonadi21ChangeRecorderPrivate8loadFromEP9QIODeviceRb@Base 15.07.90
 _ZNK7Akonadi21EntityHiddenAttribute10serializedEv@Base 15.07.90
 _ZNK7Akonadi21EntityHiddenAttribute4typeEv@Base 15.07.90
 _ZNK7Akonadi21EntityHiddenAttribute5cloneEv@Base 15.07.90
 _ZNK7Akonadi21EntityOrderProxyModel10metaObjectEv@Base 15.07.90
 _ZNK7Akonadi21EntityOrderProxyModel12configStringERK11QModelIndex@Base 15.07.90
 _ZNK7Akonadi21EntityOrderProxyModel18parentConfigStringERK11QModelIndex@Base 15.07.90
 _ZNK7Akonadi21EntityOrderProxyModel5matchERK11QModelIndexiRK8QVarianti6QFlagsIN2Qt9MatchFlagEE@Base 15.07.90
 _ZNK7Akonadi21EntityOrderProxyModel8lessThanERK11QModelIndexS3_@Base 15.07.90
 _ZNK7Akonadi21Pop3ResourceAttribute10serializedEv@Base 15.07.90
 _ZNK7Akonadi21Pop3ResourceAttribute15pop3AccountNameEv@Base 15.07.90
 _ZNK7Akonadi21Pop3ResourceAttribute4typeEv@Base 15.07.90
 _ZNK7Akonadi21Pop3ResourceAttribute5cloneEv@Base 15.07.90
 _ZNK7Akonadi21Pop3ResourceAttributeeqERKS0_@Base 15.07.90
 _ZNK7Akonadi21RecursiveItemFetchJob10metaObjectEv@Base 15.07.90
 _ZNK7Akonadi21RecursiveItemFetchJob5itemsEv@Base 15.07.90
 _ZNK7Akonadi21TrashFilterProxyModel10metaObjectEv@Base 15.07.90
 _ZNK7Akonadi21TrashFilterProxyModel12trashIsShownEv@Base 15.07.90
 _ZNK7Akonadi21TrashFilterProxyModel28TrashFilterProxyModelPrivate10showEntityERKNS_6EntityE@Base 15.07.90
 _ZNK7Akonadi21TrashFilterProxyModel9acceptRowEiRK11QModelIndex@Base 15.07.90
 _ZNK7Akonadi22AgentInstanceCreateJob10metaObjectEv@Base 15.07.90
 _ZNK7Akonadi22AgentInstanceCreateJob8instanceEv@Base 15.07.90
 _ZNK7Akonadi22CollectionPathResolver10collectionEv@Base 15.07.90
 _ZNK7Akonadi22CollectionPathResolver10metaObjectEv@Base 15.07.90
 _ZNK7Akonadi22CollectionPathResolver4pathEv@Base 15.07.90
 _ZNK7Akonadi22EntityDeletedAttribute10serializedEv@Base 15.07.90
 _ZNK7Akonadi22EntityDeletedAttribute15restoreResourceEv@Base 15.07.90
 _ZNK7Akonadi22EntityDeletedAttribute17restoreCollectionEv@Base 15.07.90
 _ZNK7Akonadi22EntityDeletedAttribute4typeEv@Base 15.07.90
 _ZNK7Akonadi22EntityDeletedAttribute5cloneEv@Base 15.07.90
 _ZNK7Akonadi22EntityDisplayAttribute10activeIconEv@Base 15.07.90
 _ZNK7Akonadi22EntityDisplayAttribute10serializedEv@Base 15.07.90
 _ZNK7Akonadi22EntityDisplayAttribute11displayNameEv@Base 15.07.90
 _ZNK7Akonadi22EntityDisplayAttribute14activeIconNameEv@Base 15.07.90
 _ZNK7Akonadi22EntityDisplayAttribute15backgroundColorEv@Base 15.07.90
 _ZNK7Akonadi22EntityDisplayAttribute4iconEv@Base 15.07.90
 _ZNK7Akonadi22EntityDisplayAttribute4typeEv@Base 15.07.90
 _ZNK7Akonadi22EntityDisplayAttribute5cloneEv@Base 15.07.90
 _ZNK7Akonadi22EntityDisplayAttribute8iconNameEv@Base 15.07.90
 _ZNK7Akonadi22EntityTreeModelPrivate11iconForNameERK7QString@Base 15.07.90
 _ZNK7Akonadi22EntityTreeModelPrivate12canFetchMoreERK11QModelIndex@Base 15.07.90
 _ZNK7Akonadi22EntityTreeModelPrivate14indexesForItemERKNS_4ItemE@Base 15.07.90
 _ZNK7Akonadi22EntityTreeModelPrivate18hasChildCollectionERKNS_10CollectionE@Base 15.07.90
 _ZNK7Akonadi22EntityTreeModelPrivate18indexForCollectionERKNS_10CollectionE@Base 15.07.90
 _ZNK7Akonadi22EntityTreeModelPrivate19isAncestorMonitoredERKNS_10CollectionE@Base 15.07.90
 _ZNK7Akonadi22EntityTreeModelPrivate19shouldBePartOfModelERKNS_10CollectionE@Base 15.07.90
 _ZNK7Akonadi22EntityTreeModelPrivate20childCollectionNamesERKNS_10CollectionE@Base 15.07.90
 _ZNK7Akonadi22EntityTreeModelPrivate20getParentCollectionsERKNS_4ItemE@Base 15.07.90
 _ZNK7Akonadi22EntityTreeModelPrivate24fetchTopLevelCollectionsEv@Base 15.07.90
 _ZNK7Akonadi22EntityTreeModelPrivate8isHiddenERKNS_6EntityEN4Node4TypeE@Base 15.07.90
 (optional=templinst)_ZNK7Akonadi22EntityTreeModelPrivate8isHiddenINS_10CollectionEEEbRKT_@Base 15.07.90
 (optional=templinst)_ZNK7Akonadi22EntityTreeModelPrivate8isHiddenINS_4ItemEEEbRKT_@Base 15.07.90
 _ZNK7Akonadi22ItemSerializerPluginV214availablePartsERKNS_4ItemE@Base 15.07.90
 _ZNK7Akonadi22TransactionRollbackJob10metaObjectEv@Base 15.07.90
 _ZNK7Akonadi23CollectionStatisticsJob10collectionEv@Base 15.07.90
 _ZNK7Akonadi23CollectionStatisticsJob10metaObjectEv@Base 15.07.90
 _ZNK7Akonadi23CollectionStatisticsJob10statisticsEv@Base 15.07.90
 _ZNK7Akonadi23EntityRightsFilterModel10metaObjectEv@Base 15.07.90
 _ZNK7Akonadi23EntityRightsFilterModel12accessRightsEv@Base 15.07.90
 _ZNK7Akonadi23EntityRightsFilterModel5flagsERK11QModelIndex@Base 15.07.90
 _ZNK7Akonadi23EntityRightsFilterModel5matchERK11QModelIndexiRK8QVarianti6QFlagsIN2Qt9MatchFlagEE@Base 15.07.90
 _ZNK7Akonadi23EntityRightsFilterModel9acceptRowEiRK11QModelIndex@Base 15.07.90
 _ZNK7Akonadi24CollectionQuotaAttribute10serializedEv@Base 15.07.90
 _ZNK7Akonadi24CollectionQuotaAttribute12currentValueEv@Base 15.07.90
 _ZNK7Akonadi24CollectionQuotaAttribute12maximumValueEv@Base 15.07.90
 _ZNK7Akonadi24CollectionQuotaAttribute4typeEv@Base 15.07.90
 _ZNK7Akonadi24CollectionQuotaAttribute5cloneEv@Base 15.07.90
 _ZNK7Akonadi24FavoriteCollectionsModel10headerDataEiN2Qt11OrientationEi@Base 15.07.90
 _ZNK7Akonadi24FavoriteCollectionsModel10metaObjectEv@Base 15.07.90
 _ZNK7Akonadi24FavoriteCollectionsModel11collectionsEv@Base 15.07.90
 _ZNK7Akonadi24FavoriteCollectionsModel13collectionIdsEv@Base 15.07.90
 _ZNK7Akonadi24FavoriteCollectionsModel4dataERK11QModelIndexi@Base 15.07.90
 _ZNK7Akonadi24FavoriteCollectionsModel5flagsERK11QModelIndex@Base 15.07.90
 _ZNK7Akonadi24FavoriteCollectionsModel9mimeTypesEv@Base 15.07.90
 _ZNK7Akonadi24NewMailNotifierAttribute10serializedEv@Base 15.07.90
 _ZNK7Akonadi24NewMailNotifierAttribute13ignoreNewMailEv@Base 15.07.90
 _ZNK7Akonadi24NewMailNotifierAttribute4typeEv@Base 15.07.90
 _ZNK7Akonadi24NewMailNotifierAttribute5cloneEv@Base 15.07.90
 _ZNK7Akonadi24NewMailNotifierAttributeeqERKS0_@Base 15.07.90
 _ZNK7Akonadi25CollectionRightsAttribute10serializedEv@Base 15.07.90
 _ZNK7Akonadi25CollectionRightsAttribute4typeEv@Base 15.07.90
 _ZNK7Akonadi25CollectionRightsAttribute5cloneEv@Base 15.07.90
 _ZNK7Akonadi25CollectionRightsAttribute6rightsEv@Base 15.07.90
 _ZNK7Akonadi25CollectionStatisticsModel10headerDataEiN2Qt11OrientationEi@Base 15.07.90
 _ZNK7Akonadi25CollectionStatisticsModel10metaObjectEv@Base 15.07.90
 _ZNK7Akonadi25CollectionStatisticsModel11columnCountERK11QModelIndex@Base 15.07.90
 _ZNK7Akonadi25CollectionStatisticsModel4dataERK11QModelIndexi@Base 15.07.90
 _ZNK7Akonadi25EntityMimeTypeFilterModel10headerDataEiN2Qt11OrientationEi@Base 15.07.90
 _ZNK7Akonadi25EntityMimeTypeFilterModel10metaObjectEv@Base 15.07.90
 _ZNK7Akonadi25EntityMimeTypeFilterModel11columnCountERK11QModelIndex@Base 15.07.90
 _ZNK7Akonadi25EntityMimeTypeFilterModel11hasChildrenERK11QModelIndex@Base 15.07.90
 _ZNK7Akonadi25EntityMimeTypeFilterModel12canFetchMoreERK11QModelIndex@Base 15.07.90
 _ZNK7Akonadi25EntityMimeTypeFilterModel16filterAcceptsRowEiRK11QModelIndex@Base 15.07.90
 _ZNK7Akonadi25EntityMimeTypeFilterModel19filterAcceptsColumnEiRK11QModelIndex@Base 15.07.90
 _ZNK7Akonadi25EntityMimeTypeFilterModel24mimeTypeExclusionFiltersEv@Base 15.07.90
 _ZNK7Akonadi25EntityMimeTypeFilterModel24mimeTypeInclusionFiltersEv@Base 15.07.90
 _ZNK7Akonadi25EntityMimeTypeFilterModel5matchERK11QModelIndexiRK8QVarianti6QFlagsIN2Qt9MatchFlagEE@Base 15.07.90
 _ZNK7Akonadi25PersistentSearchAttribute10serializedEv@Base 15.07.90
 _ZNK7Akonadi25PersistentSearchAttribute11isRecursiveEv@Base 15.07.90
 _ZNK7Akonadi25PersistentSearchAttribute11queryStringEv@Base 15.07.90
 _ZNK7Akonadi25PersistentSearchAttribute16queryCollectionsEv@Base 15.07.90
 _ZNK7Akonadi25PersistentSearchAttribute21isRemoteSearchEnabledEv@Base 15.07.90
 _ZNK7Akonadi25PersistentSearchAttribute4typeEv@Base 15.07.90
 _ZNK7Akonadi25PersistentSearchAttribute5cloneEv@Base 15.07.90
 _ZNK7Akonadi25SpecialCollectionsPrivate15defaultResourceEv@Base 15.07.90
 _ZNK7Akonadi25SpecialCollectionsPrivate17defaultResourceIdEv@Base 15.07.90
 _ZNK7Akonadi26CollectionFilterProxyModel10metaObjectEv@Base 15.07.90
 _ZNK7Akonadi26CollectionFilterProxyModel15mimeTypeFiltersEv@Base 15.07.90
 _ZNK7Akonadi26CollectionFilterProxyModel16filterAcceptsRowEiRK11QModelIndex@Base 15.07.90
 _ZNK7Akonadi26CollectionFilterProxyModel25excludeVirtualCollectionsEv@Base 15.07.90
 _ZNK7Akonadi26CollectionFilterProxyModel5flagsERK11QModelIndex@Base 15.07.90
 _ZNK7Akonadi26EntityAnnotationsAttribute10serializedEv@Base 15.07.90
 _ZNK7Akonadi26EntityAnnotationsAttribute11annotationsEv@Base 15.07.90
 _ZNK7Akonadi26EntityAnnotationsAttribute4typeEv@Base 15.07.90
 _ZNK7Akonadi26EntityAnnotationsAttribute5cloneEv@Base 15.07.90
 _ZNK7Akonadi26EntityAnnotationsAttribute8containsERK10QByteArray@Base 15.07.90
 _ZNK7Akonadi26ResourceSynchronizationJob10metaObjectEv@Base 15.07.90
 _ZNK7Akonadi26ResourceSynchronizationJob18collectionTreeOnlyEv@Base 15.07.90
 _ZNK7Akonadi26ResourceSynchronizationJob8resourceEv@Base 15.07.90
 _ZNK7Akonadi26SpecialCollectionAttribute10serializedEv@Base 15.07.90
 _ZNK7Akonadi26SpecialCollectionAttribute14collectionTypeEv@Base 15.07.90
 _ZNK7Akonadi26SpecialCollectionAttribute4typeEv@Base 15.07.90
 _ZNK7Akonadi26SpecialCollectionAttribute5cloneEv@Base 15.07.90
 _ZNK7Akonadi28SpecialCollectionsRequestJob10collectionEv@Base 15.07.90
 _ZNK7Akonadi28SpecialCollectionsRequestJob10metaObjectEv@Base 15.07.90
 _ZNK7Akonadi30SpecialCollectionsDiscoveryJob10metaObjectEv@Base 15.07.90
 _ZNK7Akonadi35RecursiveCollectionFilterProxyModel10metaObjectEv@Base 15.07.90
 _ZNK7Akonadi35RecursiveCollectionFilterProxyModel11columnCountERK11QModelIndex@Base 15.07.90
 _ZNK7Akonadi35RecursiveCollectionFilterProxyModel31contentMimeTypeInclusionFiltersEv@Base 15.07.90
 _ZNK7Akonadi35RecursiveCollectionFilterProxyModel9acceptRowEiRK11QModelIndex@Base 15.07.90
 _ZNK7Akonadi38CollectionAttributesSynchronizationJob10metaObjectEv@Base 15.07.90
 _ZNK7Akonadi3Job10metaObjectEv@Base 15.07.90
 _ZNK7Akonadi3Job11errorStringEv@Base 15.07.90
 _ZNK7Akonadi3Tag11isImmutableEv@Base 15.07.90
 _ZNK7Akonadi3Tag11setRemoteIdERK10QByteArray@Base 15.07.90
 _ZNK7Akonadi3Tag2idEv@Base 15.07.90
 _ZNK7Akonadi3Tag3gidEv@Base 15.07.90
 _ZNK7Akonadi3Tag3urlEv@Base 15.07.90
 _ZNK7Akonadi3Tag4nameEv@Base 15.07.90
 _ZNK7Akonadi3Tag4typeEv@Base 15.07.90
 _ZNK7Akonadi3Tag6parentEv@Base 15.07.90
 _ZNK7Akonadi3Tag6setGidERK10QByteArray@Base 15.07.90
 _ZNK7Akonadi3Tag7isValidEv@Base 15.07.90
 _ZNK7Akonadi3Tag7setTypeERK10QByteArray@Base 15.07.90
 _ZNK7Akonadi3Tag8remoteIdEv@Base 15.07.90
 _ZNK7Akonadi3TageqERKS0_@Base 15.07.90
 _ZNK7Akonadi3TagneERKS0_@Base 4:15.08.0+git20150717.1756+15.04
 _ZNK7Akonadi4Item10hasPayloadEv@Base 15.07.90
 _ZNK7Akonadi4Item11payloadBaseEv@Base 15.07.90
 _ZNK7Akonadi4Item11payloadDataEv@Base 15.07.90
 (optional=templinst|arch=!ppc64el)_ZNK7Akonadi4Item11payloadImplI10QByteArrayEENSt9enable_ifIXntsrNS_8Internal12PayloadTraitIT_EE13isPolymorphicES6_E4typeEv@Base 15.07.90
 (optional=templinst)_ZNK7Akonadi4Item11payloadImplINSt7__cxx1112basic_stringIcSt11char_traitsIcESaIcEEEEENSt9enable_ifIXntsrNS_8Internal12PayloadTraitIT_EE13isPolymorphicESB_E4typeEv@Base 15.07.90
 _ZNK7Akonadi4Item13payloadBaseV2Eii@Base 15.07.90
 _ZNK7Akonadi4Item16ensureMetaTypeIdEi@Base 15.07.90
 _ZNK7Akonadi4Item16modificationTimeEv@Base 15.07.90
 _ZNK7Akonadi4Item17virtualReferencesEv@Base 15.07.90
 _ZNK7Akonadi4Item18cachedPayloadPartsEv@Base 15.07.90
 _ZNK7Akonadi4Item18loadedPayloadPartsEv@Base 15.07.90
 _ZNK7Akonadi4Item19storageCollectionIdEv@Base 15.07.90
 _ZNK7Akonadi4Item21addPayloadBaseVariantEiiRSt10unique_ptrINS_11PayloadBaseESt14default_deleteIS2_EE@Base 15.07.90
 _ZNK7Akonadi4Item21availablePayloadPartsEv@Base 15.07.90
 _ZNK7Akonadi4Item21throwPayloadExceptionEii@Base 15.07.90
 _ZNK7Akonadi4Item27availablePayloadMetaTypeIdsEv@Base 15.07.90
 _ZNK7Akonadi4Item3gidEv@Base 15.07.90
 _ZNK7Akonadi4Item3urlENS0_7UrlTypeE@Base 15.07.90
 _ZNK7Akonadi4Item4sizeEv@Base 15.07.90
 _ZNK7Akonadi4Item4tagsEv@Base 15.07.90
 _ZNK7Akonadi4Item5flagsEv@Base 15.07.90
 _ZNK7Akonadi4Item6d_funcEv@Base 15.07.90
 _ZNK7Akonadi4Item6hasTagERKNS_3TagE@Base 15.07.90
 _ZNK7Akonadi4Item7hasFlagERK10QByteArray@Base 15.07.90
 _ZNK7Akonadi4Item8mimeTypeEv@Base 15.07.90
 _ZNK7Akonadi4Item8revisionEv@Base 15.07.90
 _ZNK7Akonadi4Item9relationsEv@Base 15.07.90
 _ZNK7Akonadi6Entity10attributesEv@Base 15.07.90
 _ZNK7Akonadi6Entity12hasAttributeERK10QByteArray@Base 15.07.90
 (optional=templinst)_ZNK7Akonadi6Entity12hasAttributeINS_22EntityDisplayAttributeEEEbv@Base 15.07.90
 _ZNK7Akonadi6Entity14remoteRevisionEv@Base 15.07.90
 _ZNK7Akonadi6Entity16parentCollectionEv@Base 15.07.90
 _ZNK7Akonadi6Entity2idEv@Base 15.07.90
 _ZNK7Akonadi6Entity6d_funcEv@Base 15.07.90
 _ZNK7Akonadi6Entity7isValidEv@Base 15.07.90
 _ZNK7Akonadi6Entity8remoteIdEv@Base 15.07.90
 _ZNK7Akonadi6Entity9attributeERK10QByteArray@Base 15.07.90
 (optional=templinst)_ZNK7Akonadi6Entity9attributeINS_22EntityDisplayAttributeEEEPT_v@Base 15.07.90
 _ZNK7Akonadi6EntityeqERKS0_@Base 15.07.90
 _ZNK7Akonadi6EntityltERKS0_@Base 15.07.90
 _ZNK7Akonadi6EntityneERKS0_@Base 15.07.90
 _ZNK7Akonadi7Control10metaObjectEv@Base 15.07.90
 _ZNK7Akonadi7LinkJob10metaObjectEv@Base 15.07.90
 _ZNK7Akonadi7Monitor10metaObjectEv@Base 15.07.90
 _ZNK7Akonadi7Monitor13tagsMonitoredEv@Base 15.07.90
 _ZNK7Akonadi7Monitor14isAllMonitoredEv@Base 15.07.90
 _ZNK7Akonadi7Monitor14typesMonitoredEv@Base 15.07.90
 _ZNK7Akonadi7Monitor16itemsMonitoredExEv@Base 15.07.90
 _ZNK7Akonadi7Monitor17numItemsMonitoredEv@Base 15.07.90
 _ZNK7Akonadi7Monitor18mimeTypesMonitoredEv@Base 15.07.90
 _ZNK7Akonadi7Monitor18resourcesMonitoredEv@Base 15.07.90
 _ZNK7Akonadi7Monitor20collectionsMonitoredEv@Base 15.07.90
 _ZNK7Akonadi7Monitor21numMimeTypesMonitoredEv@Base 15.07.90
 _ZNK7Akonadi7Monitor21numResourcesMonitoredEv@Base 15.07.90
 _ZNK7Akonadi7Monitor7sessionEv@Base 15.07.90
 _ZNK7Akonadi7Monitor9exclusiveEv@Base 15.07.90
 _ZNK7Akonadi7Session10metaObjectEv@Base 15.07.90
 _ZNK7Akonadi7Session9sessionIdEv@Base 15.07.90
 _ZNK7Akonadi8ItemSync10metaObjectEv@Base 15.07.90
 _ZNK7Akonadi8ItemSync9batchSizeEv@Base 15.07.90
 _ZNK7Akonadi8ItemSync9mergeModeEv@Base 4:15.08.0+git20150717.1756+15.04
 _ZNK7Akonadi8Relation11setRemoteIdERK10QByteArray@Base 15.07.90
 _ZNK7Akonadi8Relation4leftEv@Base 15.07.90
 _ZNK7Akonadi8Relation4typeEv@Base 15.07.90
 _ZNK7Akonadi8Relation5rightEv@Base 15.07.90
 _ZNK7Akonadi8Relation7isValidEv@Base 15.07.90
 _ZNK7Akonadi8Relation7setTypeERK10QByteArray@Base 15.07.90
 _ZNK7Akonadi8Relation8remoteIdEv@Base 15.07.90
 _ZNK7Akonadi8RelationeqERKS0_@Base 15.07.90
 _ZNK7Akonadi8RelationneERKS0_@Base 15.07.90
 _ZNK7Akonadi8TagModel10headerDataEiN2Qt11OrientationEi@Base 15.07.90
 _ZNK7Akonadi8TagModel10metaObjectEv@Base 15.07.90
 _ZNK7Akonadi8TagModel11columnCountERK11QModelIndex@Base 15.07.90
 _ZNK7Akonadi8TagModel4dataERK11QModelIndexi@Base 15.07.90
 _ZNK7Akonadi8TagModel5flagsERK11QModelIndex@Base 15.07.90
 _ZNK7Akonadi8TagModel5indexEiiRK11QModelIndex@Base 15.07.90
 _ZNK7Akonadi8TagModel6parentERK11QModelIndex@Base 15.07.90
 _ZNK7Akonadi8TagModel8rowCountERK11QModelIndex@Base 15.07.90
 _ZNK7Akonadi8TrashJob10metaObjectEv@Base 15.07.90
 _ZNK7Akonadi8TrashJob5itemsEv@Base 15.07.90
 _ZNK7Akonadi9AgentType10identifierEv@Base 15.07.90
 _ZNK7Akonadi9AgentType11descriptionEv@Base 15.07.90
 _ZNK7Akonadi9AgentType12capabilitiesEv@Base 15.07.90
 _ZNK7Akonadi9AgentType16customPropertiesEv@Base 15.07.90
 _ZNK7Akonadi9AgentType4iconEv@Base 15.07.90
 _ZNK7Akonadi9AgentType4nameEv@Base 15.07.90
 _ZNK7Akonadi9AgentType7isValidEv@Base 15.07.90
 _ZNK7Akonadi9AgentType8iconNameEv@Base 15.07.90
 _ZNK7Akonadi9AgentType9mimeTypesEv@Base 15.07.90
 _ZNK7Akonadi9AgentTypeeqERKS0_@Base 15.07.90
 _ZNK7Akonadi9Exception4typeEv@Base 15.07.90
 _ZNK7Akonadi9Exception4whatEv@Base 15.07.90
 _ZNK7Akonadi9ItemModel10collectionEv@Base 15.07.90
 _ZNK7Akonadi9ItemModel10headerDataEiN2Qt11OrientationEi@Base 15.07.90
 _ZNK7Akonadi9ItemModel10metaObjectEv@Base 15.07.90
 _ZNK7Akonadi9ItemModel11columnCountERK11QModelIndex@Base 15.07.90
 _ZNK7Akonadi9ItemModel12indexForItemERKNS_4ItemEi@Base 15.07.90
 _ZNK7Akonadi9ItemModel12itemForIndexERK11QModelIndex@Base 15.07.90
 _ZNK7Akonadi9ItemModel20supportedDropActionsEv@Base 15.07.90
 _ZNK7Akonadi9ItemModel4dataERK11QModelIndexi@Base 15.07.90
 _ZNK7Akonadi9ItemModel5flagsERK11QModelIndex@Base 15.07.90
 _ZNK7Akonadi9ItemModel7Private22collectionIsCompatibleEv@Base 15.07.90
 _ZNK7Akonadi9ItemModel7sessionEv@Base 15.07.90
 _ZNK7Akonadi9ItemModel8mimeDataERK5QListI11QModelIndexE@Base 15.07.90
 _ZNK7Akonadi9ItemModel8rowCountERK11QModelIndex@Base 15.07.90
 _ZNK7Akonadi9ItemModel9mimeTypesEv@Base 15.07.90
 _ZNK7Akonadi9UnlinkJob10metaObjectEv@Base 15.07.90
 _ZNK7TagSync10metaObjectEv@Base 15.07.90
 (optional=templinst)_ZNSt16_Sp_counted_baseILN9__gnu_cxx12_Lock_policyE2EE10_M_destroyEv@Base 15.07.90
 (optional=templinst)_ZNSt16_Sp_counted_baseILN9__gnu_cxx12_Lock_policyE2EE10_M_releaseEv@Base 15.07.90
 (optional=templinst|arch=ppc64el)_ZSt4swapIN7Akonadi3TagEEvRT_S3_@Base 4:15.07.90
 _ZTI11QSharedData@Base 15.07.90
 _ZTI12RelationSync@Base 15.07.90
 _ZTI33CollectionIdentificationAttribute@Base 15.07.90
 _ZTI7TagSync@Base 15.07.90
 _ZTIN5boost16exception_detail10clone_baseE@Base 15.07.90
 _ZTIN5boost9exceptionE@Base 15.07.90
 _ZTIN7Akonadi10GetLockJobE@Base 15.07.90
 _ZTIN7Akonadi11ItemCopyJobE@Base 15.07.90
 _ZTIN7Akonadi11ItemMonitor7PrivateE@Base 15.07.90
 _ZTIN7Akonadi11ItemMonitorE@Base 15.07.90
 _ZTIN7Akonadi11ItemMoveJobE@Base 15.07.90
 _ZTIN7Akonadi11PartFetcherE@Base 15.07.90
 _ZTIN7Akonadi11TagFetchJobE@Base 15.07.90
 _ZTIN7Akonadi12AgentManagerE@Base 15.07.90
 _ZTIN7Akonadi12ItemFetchJobE@Base 15.07.90
 _ZTIN7Akonadi12TagAttributeE@Base 15.07.90
 _ZTIN7Akonadi12TagCreateJobE@Base 15.07.90
 _ZTIN7Akonadi12TagDeleteJobE@Base 15.07.90
 _ZTIN7Akonadi12TagModifyJobE@Base 15.07.90
 _ZTIN7Akonadi13ItemCreateJobE@Base 15.07.90
 _ZTIN7Akonadi13ItemDeleteJobE@Base 15.07.90
 _ZTIN7Akonadi13ItemModifyJobE@Base 15.07.90
 _ZTIN7Akonadi13ItemSearchJobE@Base 15.07.90
 _ZTIN7Akonadi13ServerManagerE@Base 15.07.90
 _ZTIN7Akonadi14AgentTypeModelE@Base 15.07.90
 _ZTIN7Akonadi14ChangeRecorderE@Base 15.07.90
 _ZTIN7Akonadi14CollectionSyncE@Base 15.07.90
 _ZTIN7Akonadi14MonitorPrivateE@Base 15.07.90
 _ZTIN7Akonadi14SessionPrivateE@Base 15.07.90
 _ZTIN7Akonadi15AttributeEntityE@Base 15.07.90
 _ZTIN7Akonadi15CollectionModelE@Base 15.07.90
 _ZTIN7Akonadi15EntityCacheBaseE@Base 15.07.90
 _ZTIN7Akonadi15EntityTreeModelE@Base 15.07.90
 _ZTIN7Akonadi15ResourceScanJobE@Base 15.07.90
 _ZTIN7Akonadi15SearchCreateJobE@Base 15.07.90
 _ZTIN7Akonadi15SearchResultJobE@Base 15.07.90
 _ZTIN7Akonadi15SubscriptionJobE@Base 15.07.90
 _ZTIN7Akonadi15TrashRestoreJob22TrashRestoreJobPrivateE@Base 15.07.90
 _ZTIN7Akonadi15TrashRestoreJobE@Base 15.07.90
 _ZTIN7Akonadi16PayloadExceptionE@Base 15.07.90
 _ZTIN7Akonadi16RelationFetchJobE@Base 15.07.90
 _ZTIN7Akonadi17CollectionCopyJobE@Base 15.07.90
 _ZTIN7Akonadi17CollectionMoveJobE@Base 15.07.90
 _ZTIN7Akonadi17RelationCreateJobE@Base 15.07.90
 _ZTIN7Akonadi17RelationDeleteJobE@Base 15.07.90
 _ZTIN7Akonadi17ResourceSelectJobE@Base 15.07.90
 _ZTIN7Akonadi17SubscriptionModelE@Base 15.07.90
 _ZTIN7Akonadi18AgentInstanceModelE@Base 15.07.90
 _ZTIN7Akonadi18CollectionFetchJobE@Base 15.07.90
 _ZTIN7Akonadi18DefaultResourceJobE@Base 15.07.90
 _ZTIN7Akonadi18InvalidateCacheJobE@Base 15.07.90
 _ZTIN7Akonadi18NotificationSourceE@Base 15.07.90
 _ZTIN7Akonadi18SpecialCollectionsE@Base 15.07.90
 _ZTIN7Akonadi19CollectionCreateJobE@Base 15.07.90
 _ZTIN7Akonadi19CollectionDeleteJobE@Base 15.07.90
 _ZTIN7Akonadi19CollectionModifyJobE@Base 15.07.90
 _ZTIN7Akonadi19CollectionSelectJobE@Base 15.07.90
 _ZTIN7Akonadi19SelectionProxyModelE@Base 15.07.90
 _ZTIN7Akonadi19TransactionBeginJobE@Base 15.07.90
 _ZTIN7Akonadi19TransactionSequenceE@Base 15.07.90
 _ZTIN7Akonadi20IndexPolicyAttributeE@Base 15.07.90
 _ZTIN7Akonadi20ItemModifyJobPrivateE@Base 15.07.90
 _ZTIN7Akonadi20ItemSerializerPluginE@Base 15.07.90
 _ZTIN7Akonadi20StatisticsProxyModelE@Base 15.07.90
 _ZTIN7Akonadi20TransactionCommitJobE@Base 15.07.90
 _ZTIN7Akonadi21AgentFilterProxyModelE@Base 15.07.90
 _ZTIN7Akonadi21AsyncSelectionHandlerE@Base 15.07.90
 _ZTIN7Akonadi21ChangeRecorderPrivateE@Base 15.07.90
 _ZTIN7Akonadi21EntityHiddenAttributeE@Base 15.07.90
 _ZTIN7Akonadi21EntityOrderProxyModelE@Base 15.07.90
 _ZTIN7Akonadi21Pop3ResourceAttributeE@Base 15.07.90
 _ZTIN7Akonadi21RecursiveItemFetchJobE@Base 15.07.90
 _ZTIN7Akonadi21TrashFilterProxyModelE@Base 15.07.90
 _ZTIN7Akonadi22AgentInstanceCreateJobE@Base 15.07.90
 _ZTIN7Akonadi22CollectionPathResolverE@Base 15.07.90
 _ZTIN7Akonadi22EntityDeletedAttributeE@Base 15.07.90
 _ZTIN7Akonadi22EntityDisplayAttributeE@Base 15.07.90
 _ZTIN7Akonadi22ItemSerializerPluginV2E@Base 15.07.90
 _ZTIN7Akonadi22TransactionRollbackJobE@Base 15.07.90
 _ZTIN7Akonadi23CollectionStatisticsJobE@Base 15.07.90
 _ZTIN7Akonadi23EntityRightsFilterModelE@Base 15.07.90
 _ZTIN7Akonadi24CollectionQuotaAttributeE@Base 15.07.90
 _ZTIN7Akonadi24FavoriteCollectionsModelE@Base 15.07.90
 _ZTIN7Akonadi24NewMailNotifierAttributeE@Base 15.07.90
 _ZTIN7Akonadi25CollectionRightsAttributeE@Base 15.07.90
 _ZTIN7Akonadi25CollectionStatisticsModelE@Base 15.07.90
 _ZTIN7Akonadi25EntityMimeTypeFilterModelE@Base 15.07.90
 _ZTIN7Akonadi25PersistentSearchAttributeE@Base 15.07.90
 _ZTIN7Akonadi26CollectionFilterProxyModelE@Base 15.07.90
 _ZTIN7Akonadi26EntityAnnotationsAttributeE@Base 15.07.90
 _ZTIN7Akonadi26ResourceSynchronizationJobE@Base 15.07.90
 _ZTIN7Akonadi26SpecialCollectionAttributeE@Base 15.07.90
 _ZTIN7Akonadi28SpecialCollectionsRequestJobE@Base 15.07.90
 _ZTIN7Akonadi30SpecialCollectionsDiscoveryJobE@Base 15.07.90
 _ZTIN7Akonadi35RecursiveCollectionFilterProxyModelE@Base 15.07.90
 _ZTIN7Akonadi37ChangeNotificationDependenciesFactoryE@Base 15.07.90
 _ZTIN7Akonadi38CollectionAttributesSynchronizationJobE@Base 15.07.90
 _ZTIN7Akonadi3JobE@Base 15.07.90
 _ZTIN7Akonadi3TagE@Base 15.07.90
 _ZTIN7Akonadi7ControlE@Base 15.07.90
 _ZTIN7Akonadi7LinkJobE@Base 15.07.90
 _ZTIN7Akonadi7MonitorE@Base 15.07.90
 _ZTIN7Akonadi7SessionE@Base 15.07.90
 _ZTIN7Akonadi8ItemSyncE@Base 15.07.90
 _ZTIN7Akonadi8Protocol12LoginCommandE@Base 15.07.90
 _ZTIN7Akonadi8Protocol13SearchCommandE@Base 15.07.90
 _ZTIN7Akonadi8Protocol16CopyItemsCommandE@Base 15.07.90
 _ZTIN7Akonadi8Protocol16CreateTagCommandE@Base 15.07.90
 _ZTIN7Akonadi8Protocol16DeleteTagCommandE@Base 15.07.90
 _ZTIN7Akonadi8Protocol16FetchTagsCommandE@Base 15.07.90
 _ZTIN7Akonadi8Protocol16LinkItemsCommandE@Base 15.07.90
 _ZTIN7Akonadi8Protocol16ModifyTagCommandE@Base 15.07.90
 _ZTIN7Akonadi8Protocol16MoveItemsCommandE@Base 15.07.90
 _ZTIN7Akonadi8Protocol17CreateItemCommandE@Base 15.07.90
 _ZTIN7Akonadi8Protocol17FetchItemsCommandE@Base 15.07.90
 _ZTIN7Akonadi8Protocol17FetchTagsResponseE@Base 15.07.90
 _ZTIN7Akonadi8Protocol18ChangeNotificationE@Base 15.07.90
 _ZTIN7Akonadi8Protocol18DeleteItemsCommandE@Base 15.07.90
 _ZTIN7Akonadi8Protocol18ModifyItemsCommandE@Base 15.07.90
 _ZTIN7Akonadi8Protocol18StoreSearchCommandE@Base 15.07.90
 _ZTIN7Akonadi8Protocol18TransactionCommandE@Base 15.07.90
 _ZTIN7Akonadi8Protocol19SearchResultCommandE@Base 15.07.90
 _ZTIN7Akonadi8Protocol20StreamPayloadCommandE@Base 15.07.90
 _ZTIN7Akonadi8Protocol21CopyCollectionCommandE@Base 15.07.90
 _ZTIN7Akonadi8Protocol21FetchRelationsCommandE@Base 15.07.90
 _ZTIN7Akonadi8Protocol21ModifyRelationCommandE@Base 15.07.90
 _ZTIN7Akonadi8Protocol21MoveCollectionCommandE@Base 15.07.90
 _ZTIN7Akonadi8Protocol21SelectResourceCommandE@Base 15.07.90
 _ZTIN7Akonadi8Protocol21StreamPayloadResponseE@Base 15.07.90
 _ZTIN7Akonadi8Protocol22FetchRelationsResponseE@Base 15.07.90
 _ZTIN7Akonadi8Protocol22RemoveRelationsCommandE@Base 15.07.90
 _ZTIN7Akonadi8Protocol23CreateCollectionCommandE@Base 15.07.90
 _ZTIN7Akonadi8Protocol23DeleteCollectionCommandE@Base 15.07.90
 _ZTIN7Akonadi8Protocol23FetchCollectionsCommandE@Base 15.07.90
 _ZTIN7Akonadi8Protocol23ModifyCollectionCommandE@Base 15.07.90
 _ZTIN7Akonadi8Protocol23SelectCollectionCommandE@Base 15.07.90
 _ZTIN7Akonadi8Protocol27FetchCollectionStatsCommandE@Base 15.07.90
 _ZTIN7Akonadi8Protocol8ResponseE@Base 15.07.90
 _ZTIN7Akonadi8TagModelE@Base 15.07.90
 _ZTIN7Akonadi8TrashJob15TrashJobPrivateE@Base 15.07.90
 _ZTIN7Akonadi8TrashJobE@Base 15.07.90
 _ZTIN7Akonadi9AttributeE@Base 15.07.90
 _ZTIN7Akonadi9ExceptionE@Base 15.07.90
 _ZTIN7Akonadi9ItemModelE@Base 15.07.90
 _ZTIN7Akonadi9UnlinkJobE@Base 15.07.90
 _ZTISt11_Mutex_baseILN9__gnu_cxx12_Lock_policyE2EE@Base 15.07.90
 _ZTISt16_Sp_counted_baseILN9__gnu_cxx12_Lock_policyE2EE@Base 15.07.90
 _ZTS11QSharedData@Base 15.07.90
 _ZTS12RelationSync@Base 15.07.90
 _ZTS33CollectionIdentificationAttribute@Base 15.07.90
 _ZTS7TagSync@Base 15.07.90
 _ZTSN5boost16exception_detail10clone_baseE@Base 15.07.90
 _ZTSN5boost9exceptionE@Base 15.07.90
 _ZTSN7Akonadi10GetLockJobE@Base 15.07.90
 _ZTSN7Akonadi11ItemCopyJobE@Base 15.07.90
 _ZTSN7Akonadi11ItemMonitor7PrivateE@Base 15.07.90
 _ZTSN7Akonadi11ItemMonitorE@Base 15.07.90
 _ZTSN7Akonadi11ItemMoveJobE@Base 15.07.90
 _ZTSN7Akonadi11PartFetcherE@Base 15.07.90
 _ZTSN7Akonadi11TagFetchJobE@Base 15.07.90
 _ZTSN7Akonadi12AgentManagerE@Base 15.07.90
 _ZTSN7Akonadi12ItemFetchJobE@Base 15.07.90
 _ZTSN7Akonadi12TagAttributeE@Base 15.07.90
 _ZTSN7Akonadi12TagCreateJobE@Base 15.07.90
 _ZTSN7Akonadi12TagDeleteJobE@Base 15.07.90
 _ZTSN7Akonadi12TagModifyJobE@Base 15.07.90
 _ZTSN7Akonadi13ItemCreateJobE@Base 15.07.90
 _ZTSN7Akonadi13ItemDeleteJobE@Base 15.07.90
 _ZTSN7Akonadi13ItemModifyJobE@Base 15.07.90
 _ZTSN7Akonadi13ItemSearchJobE@Base 15.07.90
 _ZTSN7Akonadi13ServerManagerE@Base 15.07.90
 _ZTSN7Akonadi14AgentTypeModelE@Base 15.07.90
 _ZTSN7Akonadi14ChangeRecorderE@Base 15.07.90
 _ZTSN7Akonadi14CollectionSyncE@Base 15.07.90
 _ZTSN7Akonadi14MonitorPrivateE@Base 15.07.90
 _ZTSN7Akonadi14SessionPrivateE@Base 15.07.90
 _ZTSN7Akonadi15AttributeEntityE@Base 15.07.90
 _ZTSN7Akonadi15CollectionModelE@Base 15.07.90
 _ZTSN7Akonadi15EntityCacheBaseE@Base 15.07.90
 _ZTSN7Akonadi15EntityTreeModelE@Base 15.07.90
 _ZTSN7Akonadi15ResourceScanJobE@Base 15.07.90
 _ZTSN7Akonadi15SearchCreateJobE@Base 15.07.90
 _ZTSN7Akonadi15SearchResultJobE@Base 15.07.90
 _ZTSN7Akonadi15SubscriptionJobE@Base 15.07.90
 _ZTSN7Akonadi15TrashRestoreJob22TrashRestoreJobPrivateE@Base 15.07.90
 _ZTSN7Akonadi15TrashRestoreJobE@Base 15.07.90
 _ZTSN7Akonadi16PayloadExceptionE@Base 15.07.90
 _ZTSN7Akonadi16RelationFetchJobE@Base 15.07.90
 _ZTSN7Akonadi17CollectionCopyJobE@Base 15.07.90
 _ZTSN7Akonadi17CollectionMoveJobE@Base 15.07.90
 _ZTSN7Akonadi17RelationCreateJobE@Base 15.07.90
 _ZTSN7Akonadi17RelationDeleteJobE@Base 15.07.90
 _ZTSN7Akonadi17ResourceSelectJobE@Base 15.07.90
 _ZTSN7Akonadi17SubscriptionModelE@Base 15.07.90
 _ZTSN7Akonadi18AgentInstanceModelE@Base 15.07.90
 _ZTSN7Akonadi18CollectionFetchJobE@Base 15.07.90
 _ZTSN7Akonadi18DefaultResourceJobE@Base 15.07.90
 _ZTSN7Akonadi18InvalidateCacheJobE@Base 15.07.90
 _ZTSN7Akonadi18NotificationSourceE@Base 15.07.90
 _ZTSN7Akonadi18SpecialCollectionsE@Base 15.07.90
 _ZTSN7Akonadi19CollectionCreateJobE@Base 15.07.90
 _ZTSN7Akonadi19CollectionDeleteJobE@Base 15.07.90
 _ZTSN7Akonadi19CollectionModifyJobE@Base 15.07.90
 _ZTSN7Akonadi19CollectionSelectJobE@Base 15.07.90
 _ZTSN7Akonadi19SelectionProxyModelE@Base 15.07.90
 _ZTSN7Akonadi19TransactionBeginJobE@Base 15.07.90
 _ZTSN7Akonadi19TransactionSequenceE@Base 15.07.90
 _ZTSN7Akonadi20IndexPolicyAttributeE@Base 15.07.90
 _ZTSN7Akonadi20ItemModifyJobPrivateE@Base 15.07.90
 _ZTSN7Akonadi20ItemSerializerPluginE@Base 15.07.90
 _ZTSN7Akonadi20StatisticsProxyModelE@Base 15.07.90
 _ZTSN7Akonadi20TransactionCommitJobE@Base 15.07.90
 _ZTSN7Akonadi21AgentFilterProxyModelE@Base 15.07.90
 _ZTSN7Akonadi21AsyncSelectionHandlerE@Base 15.07.90
 _ZTSN7Akonadi21ChangeRecorderPrivateE@Base 15.07.90
 _ZTSN7Akonadi21EntityHiddenAttributeE@Base 15.07.90
 _ZTSN7Akonadi21EntityOrderProxyModelE@Base 15.07.90
 _ZTSN7Akonadi21Pop3ResourceAttributeE@Base 15.07.90
 _ZTSN7Akonadi21RecursiveItemFetchJobE@Base 15.07.90
 _ZTSN7Akonadi21TrashFilterProxyModelE@Base 15.07.90
 _ZTSN7Akonadi22AgentInstanceCreateJobE@Base 15.07.90
 _ZTSN7Akonadi22CollectionPathResolverE@Base 15.07.90
 _ZTSN7Akonadi22EntityDeletedAttributeE@Base 15.07.90
 _ZTSN7Akonadi22EntityDisplayAttributeE@Base 15.07.90
 _ZTSN7Akonadi22ItemSerializerPluginV2E@Base 15.07.90
 _ZTSN7Akonadi22TransactionRollbackJobE@Base 15.07.90
 _ZTSN7Akonadi23CollectionStatisticsJobE@Base 15.07.90
 _ZTSN7Akonadi23EntityRightsFilterModelE@Base 15.07.90
 _ZTSN7Akonadi24CollectionQuotaAttributeE@Base 15.07.90
 _ZTSN7Akonadi24FavoriteCollectionsModelE@Base 15.07.90
 _ZTSN7Akonadi24NewMailNotifierAttributeE@Base 15.07.90
 _ZTSN7Akonadi25CollectionRightsAttributeE@Base 15.07.90
 _ZTSN7Akonadi25CollectionStatisticsModelE@Base 15.07.90
 _ZTSN7Akonadi25EntityMimeTypeFilterModelE@Base 15.07.90
 _ZTSN7Akonadi25PersistentSearchAttributeE@Base 15.07.90
 _ZTSN7Akonadi26CollectionFilterProxyModelE@Base 15.07.90
 _ZTSN7Akonadi26EntityAnnotationsAttributeE@Base 15.07.90
 _ZTSN7Akonadi26ResourceSynchronizationJobE@Base 15.07.90
 _ZTSN7Akonadi26SpecialCollectionAttributeE@Base 15.07.90
 _ZTSN7Akonadi28SpecialCollectionsRequestJobE@Base 15.07.90
 _ZTSN7Akonadi30SpecialCollectionsDiscoveryJobE@Base 15.07.90
 _ZTSN7Akonadi35RecursiveCollectionFilterProxyModelE@Base 15.07.90
 _ZTSN7Akonadi37ChangeNotificationDependenciesFactoryE@Base 15.07.90
 _ZTSN7Akonadi38CollectionAttributesSynchronizationJobE@Base 15.07.90
 _ZTSN7Akonadi3JobE@Base 15.07.90
 _ZTSN7Akonadi3TagE@Base 15.07.90
 _ZTSN7Akonadi7ControlE@Base 15.07.90
 _ZTSN7Akonadi7LinkJobE@Base 15.07.90
 _ZTSN7Akonadi7MonitorE@Base 15.07.90
 _ZTSN7Akonadi7SessionE@Base 15.07.90
 _ZTSN7Akonadi8ItemSyncE@Base 15.07.90
 _ZTSN7Akonadi8Protocol12LoginCommandE@Base 15.07.90
 _ZTSN7Akonadi8Protocol13SearchCommandE@Base 15.07.90
 _ZTSN7Akonadi8Protocol16CopyItemsCommandE@Base 15.07.90
 _ZTSN7Akonadi8Protocol16CreateTagCommandE@Base 15.07.90
 _ZTSN7Akonadi8Protocol16DeleteTagCommandE@Base 15.07.90
 _ZTSN7Akonadi8Protocol16FetchTagsCommandE@Base 15.07.90
 _ZTSN7Akonadi8Protocol16LinkItemsCommandE@Base 15.07.90
 _ZTSN7Akonadi8Protocol16ModifyTagCommandE@Base 15.07.90
 _ZTSN7Akonadi8Protocol16MoveItemsCommandE@Base 15.07.90
 _ZTSN7Akonadi8Protocol17CreateItemCommandE@Base 15.07.90
 _ZTSN7Akonadi8Protocol17FetchItemsCommandE@Base 15.07.90
 _ZTSN7Akonadi8Protocol17FetchTagsResponseE@Base 15.07.90
 _ZTSN7Akonadi8Protocol18ChangeNotificationE@Base 15.07.90
 _ZTSN7Akonadi8Protocol18DeleteItemsCommandE@Base 15.07.90
 _ZTSN7Akonadi8Protocol18ModifyItemsCommandE@Base 15.07.90
 _ZTSN7Akonadi8Protocol18StoreSearchCommandE@Base 15.07.90
 _ZTSN7Akonadi8Protocol18TransactionCommandE@Base 15.07.90
 _ZTSN7Akonadi8Protocol19SearchResultCommandE@Base 15.07.90
 _ZTSN7Akonadi8Protocol20StreamPayloadCommandE@Base 15.07.90
 _ZTSN7Akonadi8Protocol21CopyCollectionCommandE@Base 15.07.90
 _ZTSN7Akonadi8Protocol21FetchRelationsCommandE@Base 15.07.90
 _ZTSN7Akonadi8Protocol21ModifyRelationCommandE@Base 15.07.90
 _ZTSN7Akonadi8Protocol21MoveCollectionCommandE@Base 15.07.90
 _ZTSN7Akonadi8Protocol21SelectResourceCommandE@Base 15.07.90
 _ZTSN7Akonadi8Protocol21StreamPayloadResponseE@Base 15.07.90
 _ZTSN7Akonadi8Protocol22FetchRelationsResponseE@Base 15.07.90
 _ZTSN7Akonadi8Protocol22RemoveRelationsCommandE@Base 15.07.90
 _ZTSN7Akonadi8Protocol23CreateCollectionCommandE@Base 15.07.90
 _ZTSN7Akonadi8Protocol23DeleteCollectionCommandE@Base 15.07.90
 _ZTSN7Akonadi8Protocol23FetchCollectionsCommandE@Base 15.07.90
 _ZTSN7Akonadi8Protocol23ModifyCollectionCommandE@Base 15.07.90
 _ZTSN7Akonadi8Protocol23SelectCollectionCommandE@Base 15.07.90
 _ZTSN7Akonadi8Protocol27FetchCollectionStatsCommandE@Base 15.07.90
 _ZTSN7Akonadi8Protocol8ResponseE@Base 15.07.90
 _ZTSN7Akonadi8TagModelE@Base 15.07.90
 _ZTSN7Akonadi8TrashJob15TrashJobPrivateE@Base 15.07.90
 _ZTSN7Akonadi8TrashJobE@Base 15.07.90
 _ZTSN7Akonadi9AttributeE@Base 15.07.90
 _ZTSN7Akonadi9ExceptionE@Base 15.07.90
 _ZTSN7Akonadi9ItemModelE@Base 15.07.90
 _ZTSN7Akonadi9UnlinkJobE@Base 15.07.90
 _ZTSSt11_Mutex_baseILN9__gnu_cxx12_Lock_policyE2EE@Base 15.07.90
 _ZTSSt16_Sp_counted_baseILN9__gnu_cxx12_Lock_policyE2EE@Base 15.07.90
 _ZTV12RelationSync@Base 15.07.90
 _ZTV33CollectionIdentificationAttribute@Base 15.07.90
 _ZTV7TagSync@Base 15.07.90
 _ZTVN5boost16exception_detail10clone_baseE@Base 15.07.90
 _ZTVN5boost9exceptionE@Base 15.07.90
 _ZTVN7Akonadi10GetLockJobE@Base 15.07.90
 _ZTVN7Akonadi11ItemCopyJobE@Base 15.07.90
 _ZTVN7Akonadi11ItemMonitor7PrivateE@Base 15.07.90
 _ZTVN7Akonadi11ItemMonitorE@Base 15.07.90
 _ZTVN7Akonadi11ItemMoveJobE@Base 15.07.90
 _ZTVN7Akonadi11PartFetcherE@Base 15.07.90
 _ZTVN7Akonadi11TagFetchJobE@Base 15.07.90
 _ZTVN7Akonadi12AgentManagerE@Base 15.07.90
 _ZTVN7Akonadi12ItemFetchJobE@Base 15.07.90
 _ZTVN7Akonadi12TagAttributeE@Base 15.07.90
 _ZTVN7Akonadi12TagCreateJobE@Base 15.07.90
 _ZTVN7Akonadi12TagDeleteJobE@Base 15.07.90
 _ZTVN7Akonadi12TagModifyJobE@Base 15.07.90
 _ZTVN7Akonadi13ItemCreateJobE@Base 15.07.90
 _ZTVN7Akonadi13ItemDeleteJobE@Base 15.07.90
 _ZTVN7Akonadi13ItemModifyJobE@Base 15.07.90
 _ZTVN7Akonadi13ItemSearchJobE@Base 15.07.90
 _ZTVN7Akonadi13ServerManagerE@Base 15.07.90
 _ZTVN7Akonadi14AgentTypeModelE@Base 15.07.90
 _ZTVN7Akonadi14ChangeRecorderE@Base 15.07.90
 _ZTVN7Akonadi14CollectionSyncE@Base 15.07.90
 _ZTVN7Akonadi14MonitorPrivateE@Base 15.07.90
 _ZTVN7Akonadi14SessionPrivateE@Base 15.07.90
 _ZTVN7Akonadi15AttributeEntityE@Base 15.07.90
 _ZTVN7Akonadi15CollectionModelE@Base 15.07.90
 _ZTVN7Akonadi15EntityCacheBaseE@Base 15.07.90
 _ZTVN7Akonadi15EntityTreeModelE@Base 15.07.90
 _ZTVN7Akonadi15ResourceScanJobE@Base 15.07.90
 _ZTVN7Akonadi15SearchCreateJobE@Base 15.07.90
 _ZTVN7Akonadi15SearchResultJobE@Base 15.07.90
 _ZTVN7Akonadi15SubscriptionJobE@Base 15.07.90
 _ZTVN7Akonadi15TrashRestoreJob22TrashRestoreJobPrivateE@Base 15.07.90
 _ZTVN7Akonadi15TrashRestoreJobE@Base 15.07.90
 _ZTVN7Akonadi16PayloadExceptionE@Base 15.07.90
 _ZTVN7Akonadi16RelationFetchJobE@Base 15.07.90
 _ZTVN7Akonadi17CollectionCopyJobE@Base 15.07.90
 _ZTVN7Akonadi17CollectionMoveJobE@Base 15.07.90
 _ZTVN7Akonadi17RelationCreateJobE@Base 15.07.90
 _ZTVN7Akonadi17RelationDeleteJobE@Base 15.07.90
 _ZTVN7Akonadi17ResourceSelectJobE@Base 15.07.90
 _ZTVN7Akonadi17SubscriptionModelE@Base 15.07.90
 _ZTVN7Akonadi18AgentInstanceModelE@Base 15.07.90
 _ZTVN7Akonadi18CollectionFetchJobE@Base 15.07.90
 _ZTVN7Akonadi18DefaultResourceJobE@Base 15.07.90
 _ZTVN7Akonadi18InvalidateCacheJobE@Base 15.07.90
 _ZTVN7Akonadi18NotificationSourceE@Base 15.07.90
 _ZTVN7Akonadi18SpecialCollectionsE@Base 15.07.90
 _ZTVN7Akonadi19CollectionCreateJobE@Base 15.07.90
 _ZTVN7Akonadi19CollectionDeleteJobE@Base 15.07.90
 _ZTVN7Akonadi19CollectionModifyJobE@Base 15.07.90
 _ZTVN7Akonadi19CollectionSelectJobE@Base 15.07.90
 _ZTVN7Akonadi19SelectionProxyModelE@Base 15.07.90
 _ZTVN7Akonadi19TransactionBeginJobE@Base 15.07.90
 _ZTVN7Akonadi19TransactionSequenceE@Base 15.07.90
 _ZTVN7Akonadi20IndexPolicyAttributeE@Base 15.07.90
 _ZTVN7Akonadi20ItemModifyJobPrivateE@Base 15.07.90
 _ZTVN7Akonadi20ItemSerializerPluginE@Base 15.07.90
 _ZTVN7Akonadi20StatisticsProxyModelE@Base 15.07.90
 _ZTVN7Akonadi20TransactionCommitJobE@Base 15.07.90
 _ZTVN7Akonadi21AgentFilterProxyModelE@Base 15.07.90
 _ZTVN7Akonadi21AsyncSelectionHandlerE@Base 15.07.90
 _ZTVN7Akonadi21ChangeRecorderPrivateE@Base 15.07.90
 _ZTVN7Akonadi21EntityHiddenAttributeE@Base 15.07.90
 _ZTVN7Akonadi21EntityOrderProxyModelE@Base 15.07.90
 _ZTVN7Akonadi21Pop3ResourceAttributeE@Base 15.07.90
 _ZTVN7Akonadi21RecursiveItemFetchJobE@Base 15.07.90
 _ZTVN7Akonadi21TrashFilterProxyModelE@Base 15.07.90
 _ZTVN7Akonadi22AgentInstanceCreateJobE@Base 15.07.90
 _ZTVN7Akonadi22CollectionPathResolverE@Base 15.07.90
 _ZTVN7Akonadi22EntityDeletedAttributeE@Base 15.07.90
 _ZTVN7Akonadi22EntityDisplayAttributeE@Base 15.07.90
 _ZTVN7Akonadi22ItemSerializerPluginV2E@Base 15.07.90
 _ZTVN7Akonadi22TransactionRollbackJobE@Base 15.07.90
 _ZTVN7Akonadi23CollectionStatisticsJobE@Base 15.07.90
 _ZTVN7Akonadi23EntityRightsFilterModelE@Base 15.07.90
 _ZTVN7Akonadi24CollectionQuotaAttributeE@Base 15.07.90
 _ZTVN7Akonadi24FavoriteCollectionsModelE@Base 15.07.90
 _ZTVN7Akonadi24NewMailNotifierAttributeE@Base 15.07.90
 _ZTVN7Akonadi25CollectionRightsAttributeE@Base 15.07.90
 _ZTVN7Akonadi25CollectionStatisticsModelE@Base 15.07.90
 _ZTVN7Akonadi25EntityMimeTypeFilterModelE@Base 15.07.90
 _ZTVN7Akonadi25PersistentSearchAttributeE@Base 15.07.90
 _ZTVN7Akonadi26CollectionFilterProxyModelE@Base 15.07.90
 _ZTVN7Akonadi26EntityAnnotationsAttributeE@Base 15.07.90
 _ZTVN7Akonadi26ResourceSynchronizationJobE@Base 15.07.90
 _ZTVN7Akonadi26SpecialCollectionAttributeE@Base 15.07.90
 _ZTVN7Akonadi28SpecialCollectionsRequestJobE@Base 15.07.90
 _ZTVN7Akonadi30SpecialCollectionsDiscoveryJobE@Base 15.07.90
 _ZTVN7Akonadi35RecursiveCollectionFilterProxyModelE@Base 15.07.90
 _ZTVN7Akonadi37ChangeNotificationDependenciesFactoryE@Base 15.07.90
 _ZTVN7Akonadi38CollectionAttributesSynchronizationJobE@Base 15.07.90
 _ZTVN7Akonadi3JobE@Base 15.07.90
 _ZTVN7Akonadi3TagE@Base 15.07.90
 _ZTVN7Akonadi7ControlE@Base 15.07.90
 _ZTVN7Akonadi7LinkJobE@Base 15.07.90
 _ZTVN7Akonadi7MonitorE@Base 15.07.90
 _ZTVN7Akonadi7SessionE@Base 15.07.90
 _ZTVN7Akonadi8ItemSyncE@Base 15.07.90
 _ZTVN7Akonadi8Protocol12LoginCommandE@Base 15.07.90
 _ZTVN7Akonadi8Protocol13SearchCommandE@Base 15.07.90
 _ZTVN7Akonadi8Protocol16CopyItemsCommandE@Base 15.07.90
 _ZTVN7Akonadi8Protocol16CreateTagCommandE@Base 15.07.90
 _ZTVN7Akonadi8Protocol16DeleteTagCommandE@Base 15.07.90
 _ZTVN7Akonadi8Protocol16FetchTagsCommandE@Base 15.07.90
 _ZTVN7Akonadi8Protocol16LinkItemsCommandE@Base 15.07.90
 _ZTVN7Akonadi8Protocol16ModifyTagCommandE@Base 15.07.90
 _ZTVN7Akonadi8Protocol16MoveItemsCommandE@Base 15.07.90
 _ZTVN7Akonadi8Protocol17CreateItemCommandE@Base 15.07.90
 _ZTVN7Akonadi8Protocol17FetchItemsCommandE@Base 15.07.90
 _ZTVN7Akonadi8Protocol17FetchTagsResponseE@Base 15.07.90
 _ZTVN7Akonadi8Protocol18ChangeNotificationE@Base 15.07.90
 _ZTVN7Akonadi8Protocol18DeleteItemsCommandE@Base 15.07.90
 _ZTVN7Akonadi8Protocol18ModifyItemsCommandE@Base 15.07.90
 _ZTVN7Akonadi8Protocol18StoreSearchCommandE@Base 15.07.90
 _ZTVN7Akonadi8Protocol18TransactionCommandE@Base 15.07.90
 _ZTVN7Akonadi8Protocol19SearchResultCommandE@Base 15.07.90
 _ZTVN7Akonadi8Protocol20StreamPayloadCommandE@Base 15.07.90
 _ZTVN7Akonadi8Protocol21CopyCollectionCommandE@Base 15.07.90
 _ZTVN7Akonadi8Protocol21FetchRelationsCommandE@Base 15.07.90
 _ZTVN7Akonadi8Protocol21ModifyRelationCommandE@Base 15.07.90
 _ZTVN7Akonadi8Protocol21MoveCollectionCommandE@Base 15.07.90
 _ZTVN7Akonadi8Protocol21SelectResourceCommandE@Base 15.07.90
 _ZTVN7Akonadi8Protocol21StreamPayloadResponseE@Base 15.07.90
 _ZTVN7Akonadi8Protocol22FetchRelationsResponseE@Base 15.07.90
 _ZTVN7Akonadi8Protocol22RemoveRelationsCommandE@Base 15.07.90
 _ZTVN7Akonadi8Protocol23CreateCollectionCommandE@Base 15.07.90
 _ZTVN7Akonadi8Protocol23DeleteCollectionCommandE@Base 15.07.90
 _ZTVN7Akonadi8Protocol23FetchCollectionsCommandE@Base 15.07.90
 _ZTVN7Akonadi8Protocol23ModifyCollectionCommandE@Base 15.07.90
 _ZTVN7Akonadi8Protocol23SelectCollectionCommandE@Base 15.07.90
 _ZTVN7Akonadi8Protocol27FetchCollectionStatsCommandE@Base 15.07.90
 _ZTVN7Akonadi8Protocol8ResponseE@Base 15.07.90
 _ZTVN7Akonadi8TagModelE@Base 15.07.90
 _ZTVN7Akonadi8TrashJob15TrashJobPrivateE@Base 15.07.90
 _ZTVN7Akonadi8TrashJobE@Base 15.07.90
 _ZTVN7Akonadi9AttributeE@Base 15.07.90
 _ZTVN7Akonadi9ExceptionE@Base 15.07.90
 _ZTVN7Akonadi9ItemModelE@Base 15.07.90
 _ZTVN7Akonadi9UnlinkJobE@Base 15.07.90
 (optional=templinst)_ZZZN7Akonadi11SearchQuery7Private10JSONToTermERK4QMapI7QString8QVariantEENKUlvE0_clEvE15qstring_literal@Base 15.07.90
 (optional=templinst)_ZZZN7Akonadi11SearchQuery7Private10JSONToTermERK4QMapI7QString8QVariantEENKUlvE1_clEvE15qstring_literal@Base 15.07.90
 (optional=templinst)_ZZZN7Akonadi11SearchQuery7Private10JSONToTermERK4QMapI7QString8QVariantEENKUlvE2_clEvE15qstring_literal@Base 15.07.90
 (optional=templinst)_ZZZN7Akonadi11SearchQuery7Private10JSONToTermERK4QMapI7QString8QVariantEENKUlvE3_clEvE15qstring_literal@Base 15.07.90
 (optional=templinst)_ZZZN7Akonadi11SearchQuery7Private10JSONToTermERK4QMapI7QString8QVariantEENKUlvE4_clEvE15qstring_literal@Base 15.07.90
 (optional=templinst)_ZZZN7Akonadi11SearchQuery7Private10JSONToTermERK4QMapI7QString8QVariantEENKUlvE5_clEvE15qstring_literal@Base 15.07.90
 (optional=templinst)_ZZZN7Akonadi11SearchQuery7Private10JSONToTermERK4QMapI7QString8QVariantEENKUlvE6_clEvE15qstring_literal@Base 15.07.90
 (optional=templinst)_ZZZN7Akonadi11SearchQuery7Private10JSONToTermERK4QMapI7QString8QVariantEENKUlvE7_clEvE15qstring_literal@Base 15.07.90
 (optional=templinst)_ZZZN7Akonadi11SearchQuery7Private10JSONToTermERK4QMapI7QString8QVariantEENKUlvE_clEvE15qstring_literal@Base 15.07.90
 _ZZZN7Akonadi11SearchQuery7Private10termToJSONERKNS_10SearchTermEENKUlvE0_clEvE15qstring_literal@Base 15.07.90
 _ZZZN7Akonadi11SearchQuery7Private10termToJSONERKNS_10SearchTermEENKUlvE1_clEvE15qstring_literal@Base 15.07.90
 _ZZZN7Akonadi11SearchQuery7Private10termToJSONERKNS_10SearchTermEENKUlvE2_clEvE15qstring_literal@Base 15.07.90
 _ZZZN7Akonadi11SearchQuery7Private10termToJSONERKNS_10SearchTermEENKUlvE3_clEvE15qstring_literal@Base 15.07.90
 _ZZZN7Akonadi11SearchQuery7Private10termToJSONERKNS_10SearchTermEENKUlvE4_clEvE15qstring_literal@Base 15.07.90
 _ZZZN7Akonadi11SearchQuery7Private10termToJSONERKNS_10SearchTermEENKUlvE_clEvE15qstring_literal@Base 15.07.90
 _ZZZN7Akonadi20StatisticsProxyModel7Private20toolTipForCollectionERK11QModelIndexRKNS_10CollectionEENKUlvE0_clEvE15qstring_literal@Base 15.07.90
 _ZZZN7Akonadi20StatisticsProxyModel7Private20toolTipForCollectionERK11QModelIndexRKNS_10CollectionEENKUlvE1_clEvE15qstring_literal@Base 15.07.90
 _ZZZN7Akonadi20StatisticsProxyModel7Private20toolTipForCollectionERK11QModelIndexRKNS_10CollectionEENKUlvE_clEvE15qstring_literal@Base 15.07.90
 _ZZZN7Akonadi26CollectionFilterProxyModel7PrivateC4EPS0_ENKUlvE_clEvE15qstring_literal@Base 15.07.90
 _ZZZNK7Akonadi24FavoriteCollectionsModel7Private18labelForCollectionExENKUlvE_clEvE15qstring_literal@Base 15.07.90
 _Zls6QDebugRKN7Akonadi10CollectionE@Base 15.07.90
 _Zls6QDebugRKN7Akonadi11CachePolicyE@Base 15.07.90
 _Zls6QDebugRKN7Akonadi20CollectionStatisticsE@Base 15.07.90
 _ZlsR6QDebugRKN7Akonadi3TagE@Base 15.07.90
 _ZlsR6QDebugRKN7Akonadi8RelationE@Base 15.07.90
