# SymbolsHelper-Confirmed: 4:15.08.0+git20150717.1756+15.04 amd64
libKF5AkonadiAgentBase.so.5 libkf5akonadiagentbase5 #MINVER#
 _ZN7Akonadi12ResourceBase10cancelTaskERK7QString@Base 15.07.90
 _ZN7Akonadi12ResourceBase10cancelTaskEv@Base 15.07.90
 _ZN7Akonadi12ResourceBase10clearCacheEv@Base 15.07.90
 _ZN7Akonadi12ResourceBase11doSetOnlineEb@Base 15.07.90
 _ZN7Akonadi12ResourceBase11nameChangedERK7QString@Base 15.07.90
 _ZN7Akonadi12ResourceBase11qt_metacallEN11QMetaObject4CallEiPPv@Base 15.07.90
 _ZN7Akonadi12ResourceBase11qt_metacastEPKc@Base 15.07.90
 _ZN7Akonadi12ResourceBase11synchronizeEv@Base 15.07.90
 _ZN7Akonadi12ResourceBase12retrieveTagsEv@Base 15.07.90
 _ZN7Akonadi12ResourceBase12synchronizedEv@Base 15.07.90
 _ZN7Akonadi12ResourceBase13abortActivityEv@Base 15.07.90
 _ZN7Akonadi12ResourceBase13itemRetrievedERKNS_4ItemE@Base 15.07.90
 _ZN7Akonadi12ResourceBase13setTotalItemsEi@Base 15.07.90
 _ZN7Akonadi12ResourceBase13tagsRetrievedERK5QListINS_3TagEERK5QHashI7QString7QVectorINS_4ItemEEE@Base 15.07.90
 _ZN7Akonadi12ResourceBase14itemsRetrievedERK7QVectorINS_4ItemEE@Base 15.07.90
 _ZN7Akonadi12ResourceBase14parseArgumentsEiPPc@Base 15.07.90
 _ZN7Akonadi12ResourceBase15changeCommittedERKNS_10CollectionE@Base 15.07.90
 _ZN7Akonadi12ResourceBase15changeCommittedERKNS_3TagE@Base 15.07.90
 _ZN7Akonadi12ResourceBase15changeCommittedERKNS_4ItemE@Base 15.07.90
 _ZN7Akonadi12ResourceBase15invalidateCacheERKNS_10CollectionE@Base 15.07.90
 _ZN7Akonadi12ResourceBase15synchronizeTagsEv@Base 15.07.90
 _ZN7Akonadi12ResourceBase16changesCommittedERK7QVectorINS_4ItemEE@Base 15.07.90
 _ZN7Akonadi12ResourceBase16staticMetaObjectE@Base 15.07.90
 _ZN7Akonadi12ResourceBase17retrieveRelationsEv@Base 15.07.90
 _ZN7Akonadi12ResourceBase18itemsRetrievalDoneEv@Base 15.07.90
 _ZN7Akonadi12ResourceBase18relationsRetrievedERK7QVectorINS_8RelationEE@Base 15.07.90
 _ZN7Akonadi12ResourceBase18scheduleCustomTaskEP7QObjectPKcRK8QVariantNS0_16SchedulePriorityE@Base 15.07.90
 _ZN7Akonadi12ResourceBase18setItemMergingModeENS_8ItemSync9MergeModeE@Base 4:15.08.0+git20150717.1756+15.04
 _ZN7Akonadi12ResourceBase19requestItemDeliveryExRK7QStringS3_RK11QStringList@Base 15.07.90
 _ZN7Akonadi12ResourceBase20collectionsRetrievedERK7QVectorINS_10CollectionEE@Base 15.07.90
 _ZN7Akonadi12ResourceBase20setItemSyncBatchSizeEi@Base 15.07.90
 _ZN7Akonadi12ResourceBase20synchronizeRelationsEv@Base 15.07.90
 _ZN7Akonadi12ResourceBase21requestItemDeliveryV2ExRK7QStringS3_RK11QStringList@Base 15.07.90
 _ZN7Akonadi12ResourceBase21synchronizeCollectionEx@Base 15.07.90
 _ZN7Akonadi12ResourceBase21synchronizeCollectionExb@Base 15.07.90
 _ZN7Akonadi12ResourceBase22attributesSynchronizedEx@Base 15.07.90
 _ZN7Akonadi12ResourceBase22setItemTransactionModeENS_8ItemSync15TransactionModeE@Base 15.07.90
 _ZN7Akonadi12ResourceBase23setItemStreamingEnabledEb@Base 15.07.90
 _ZN7Akonadi12ResourceBase24collectionsRetrievalDoneEv@Base 15.07.90
 _ZN7Akonadi12ResourceBase25itemsRetrievedIncrementalERK7QVectorINS_4ItemEES5_@Base 15.07.90
 _ZN7Akonadi12ResourceBase25retrieveNextItemSyncBatchEi@Base 15.07.90
 _ZN7Akonadi12ResourceBase25synchronizeCollectionTreeEv@Base 15.07.90
 _ZN7Akonadi12ResourceBase26collectionTreeSynchronizedEv@Base 15.07.90
 _ZN7Akonadi12ResourceBase28retrieveCollectionAttributesERKNS_10CollectionE@Base 15.07.90
 _ZN7Akonadi12ResourceBase29collectionAttributesRetrievedERKNS_10CollectionE@Base 15.07.90
 _ZN7Akonadi12ResourceBase29setAutomaticProgressReportingEb@Base 15.07.90
 _ZN7Akonadi12ResourceBase29setCollectionStreamingEnabledEb@Base 15.07.90
 _ZN7Akonadi12ResourceBase29setKeepLocalCollectionChangesERK4QSetI10QByteArrayE@Base 15.07.90
 _ZN7Akonadi12ResourceBase31collectionsRetrievedIncrementalERK7QVectorINS_10CollectionEES5_@Base 15.07.90
 _ZN7Akonadi12ResourceBase31synchronizeCollectionAttributesERKNS_10CollectionE@Base 15.07.90
 _ZN7Akonadi12ResourceBase31synchronizeCollectionAttributesEx@Base 15.07.90
 _ZN7Akonadi12ResourceBase32setItemSynchronizationFetchScopeERKNS_14ItemFetchScopeE@Base 15.07.90
 _ZN7Akonadi12ResourceBase35setDisableAutomaticItemDeliveryDoneEb@Base 15.07.90
 _ZN7Akonadi12ResourceBase38setScheduleAttributeSyncBeforeItemSyncEb@Base 15.07.90
 _ZN7Akonadi12ResourceBase39setHierarchicalRemoteIdentifiersEnabledEb@Base 15.07.90
 _ZN7Akonadi12ResourceBase4initEPS0_@Base 15.07.90
 _ZN7Akonadi12ResourceBase7setNameERK7QString@Base 15.07.90
 _ZN7Akonadi12ResourceBase8taskDoneEv@Base 15.07.90
 _ZN7Akonadi12ResourceBase9deferTaskEv@Base 15.07.90
 _ZN7Akonadi12ResourceBaseC1ERK7QString@Base 15.07.90
 _ZN7Akonadi12ResourceBaseC2ERK7QString@Base 15.07.90
 _ZN7Akonadi12ResourceBaseD0Ev@Base 15.07.90
 _ZN7Akonadi12ResourceBaseD1Ev@Base 15.07.90
 _ZN7Akonadi12ResourceBaseD2Ev@Base 15.07.90
 _ZN7Akonadi16AgentFactoryBase11qt_metacallEN11QMetaObject4CallEiPPv@Base 15.07.90
 _ZN7Akonadi16AgentFactoryBase11qt_metacastEPKc@Base 15.07.90
 _ZN7Akonadi16AgentFactoryBase16staticMetaObjectE@Base 15.07.90
 _ZN7Akonadi16AgentFactoryBaseC1EPKcP7QObject@Base 15.07.90
 _ZN7Akonadi16AgentFactoryBaseC2EPKcP7QObject@Base 15.07.90
 _ZN7Akonadi16AgentFactoryBaseD0Ev@Base 15.07.90
 _ZN7Akonadi16AgentFactoryBaseD1Ev@Base 15.07.90
 _ZN7Akonadi16AgentFactoryBaseD2Ev@Base 15.07.90
 _ZN7Akonadi16PreprocessorBase10fetchScopeEv@Base 15.07.90
 _ZN7Akonadi16PreprocessorBase11qt_metacallEN11QMetaObject4CallEiPPv@Base 15.07.90
 _ZN7Akonadi16PreprocessorBase11qt_metacastEPKc@Base 15.07.90
 _ZN7Akonadi16PreprocessorBase13setFetchScopeERKNS_14ItemFetchScopeE@Base 15.07.90
 _ZN7Akonadi16PreprocessorBase16finishProcessingENS0_16ProcessingResultE@Base 15.07.90
 _ZN7Akonadi16PreprocessorBase16staticMetaObjectE@Base 15.07.90
 _ZN7Akonadi16PreprocessorBaseC1ERK7QString@Base 15.07.90
 _ZN7Akonadi16PreprocessorBaseC2ERK7QString@Base 15.07.90
 _ZN7Akonadi16PreprocessorBaseD0Ev@Base 15.07.90
 _ZN7Akonadi16PreprocessorBaseD1Ev@Base 15.07.90
 _ZN7Akonadi16PreprocessorBaseD2Ev@Base 15.07.90
 _ZN7Akonadi16ResourceSettings11qt_metacallEN11QMetaObject4CallEiPPv@Base 15.07.90
 _ZN7Akonadi16ResourceSettings11qt_metacastEPKc@Base 15.07.90
 _ZN7Akonadi16ResourceSettings16staticMetaObjectE@Base 15.07.90
 _ZN7Akonadi16ResourceSettings4selfEv@Base 15.07.90
 _ZN7Akonadi16ResourceSettings5mSelfE@Base 15.07.90
 _ZN7Akonadi16ResourceSettingsC1Ev@Base 15.07.90
 _ZN7Akonadi16ResourceSettingsC2Ev@Base 15.07.90
 _ZN7Akonadi16ResourceSettingsD0Ev@Base 15.07.90
 _ZN7Akonadi16ResourceSettingsD1Ev@Base 15.07.90
 _ZN7Akonadi16ResourceSettingsD2Ev@Base 15.07.90
 _ZN7Akonadi20AgentSearchInterface14searchFinishedERK7QVectorI10QByteArrayE@Base 15.07.90
 _ZN7Akonadi20AgentSearchInterface14searchFinishedERK7QVectorIxENS0_11ResultScopeE@Base 15.07.90
 _ZN7Akonadi20AgentSearchInterface14searchFinishedERKNS_7ImapSetENS0_11ResultScopeE@Base 15.07.90
 _ZN7Akonadi20AgentSearchInterfaceC1Ev@Base 15.07.90
 _ZN7Akonadi20AgentSearchInterfaceC2Ev@Base 15.07.90
 _ZN7Akonadi20AgentSearchInterfaceD0Ev@Base 15.07.90
 _ZN7Akonadi20AgentSearchInterfaceD1Ev@Base 15.07.90
 _ZN7Akonadi20AgentSearchInterfaceD2Ev@Base 15.07.90
 _ZN7Akonadi20ResourceBaseSettings4selfEv@Base 15.07.90
 _ZN7Akonadi20ResourceBaseSettingsC1Ev@Base 15.07.90
 _ZN7Akonadi20ResourceBaseSettingsC2Ev@Base 15.07.90
 _ZN7Akonadi20ResourceBaseSettingsD0Ev@Base 15.07.90
 _ZN7Akonadi20ResourceBaseSettingsD1Ev@Base 15.07.90
 _ZN7Akonadi20ResourceBaseSettingsD2Ev@Base 15.07.90
 _ZN7Akonadi21TransportResourceBase8itemSentERKNS_4ItemENS0_15TransportResultERK7QString@Base 15.07.90
 _ZN7Akonadi21TransportResourceBaseC1Ev@Base 15.07.90
 _ZN7Akonadi21TransportResourceBaseC2Ev@Base 15.07.90
 _ZN7Akonadi21TransportResourceBaseD0Ev@Base 15.07.90
 _ZN7Akonadi21TransportResourceBaseD1Ev@Base 15.07.90
 _ZN7Akonadi21TransportResourceBaseD2Ev@Base 15.07.90
 _ZN7Akonadi9AgentBase10ObserverV210itemLinkedERKNS_4ItemERKNS_10CollectionE@Base 15.07.90
 _ZN7Akonadi9AgentBase10ObserverV212itemUnlinkedERKNS_4ItemERKNS_10CollectionE@Base 15.07.90
 _ZN7Akonadi9AgentBase10ObserverV215collectionMovedERKNS_10CollectionES4_S4_@Base 15.07.90
 _ZN7Akonadi9AgentBase10ObserverV217collectionChangedERKNS_10CollectionERK4QSetI10QByteArrayE@Base 15.07.90
 _ZN7Akonadi9AgentBase10ObserverV29itemMovedERKNS_4ItemERKNS_10CollectionES7_@Base 15.07.90
 _ZN7Akonadi9AgentBase10ObserverV310itemsMovedERK7QVectorINS_4ItemEERKNS_10CollectionES9_@Base 15.07.90
 _ZN7Akonadi9AgentBase10ObserverV311itemsLinkedERK7QVectorINS_4ItemEERKNS_10CollectionE@Base 15.07.90
 _ZN7Akonadi9AgentBase10ObserverV312itemsRemovedERK7QVectorINS_4ItemEE@Base 15.07.90
 _ZN7Akonadi9AgentBase10ObserverV313itemsUnlinkedERK7QVectorINS_4ItemEERKNS_10CollectionE@Base 15.07.90
 _ZN7Akonadi9AgentBase10ObserverV317itemsFlagsChangedERK7QVectorINS_4ItemEERK4QSetI10QByteArrayESB_@Base 15.07.90
 _ZN7Akonadi9AgentBase10ObserverV410tagChangedERKNS_3TagE@Base 15.07.90
 _ZN7Akonadi9AgentBase10ObserverV410tagRemovedERKNS_3TagE@Base 15.07.90
 _ZN7Akonadi9AgentBase10ObserverV413relationAddedERKNS_8RelationE@Base 15.07.90
 _ZN7Akonadi9AgentBase10ObserverV415relationRemovedERKNS_8RelationE@Base 15.07.90
 _ZN7Akonadi9AgentBase10ObserverV416itemsTagsChangedERK7QVectorINS_4ItemEERK4QSetINS_3TagEESB_@Base 15.07.90
 _ZN7Akonadi9AgentBase10ObserverV421itemsRelationsChangedERK7QVectorINS_4ItemEERKS2_INS_8RelationEESA_@Base 15.07.90
 _ZN7Akonadi9AgentBase10ObserverV48tagAddedERKNS_3TagE@Base 15.07.90
 _ZN7Akonadi9AgentBase11aboutToQuitEv@Base 15.07.90
 _ZN7Akonadi9AgentBase11doSetOnlineEb@Base 15.07.90
 _ZN7Akonadi9AgentBase11qt_metacallEN11QMetaObject4CallEiPPv@Base 15.07.90
 _ZN7Akonadi9AgentBase11qt_metacastEPKc@Base 15.07.90
 _ZN7Akonadi9AgentBase11reconfigureEv@Base 15.07.90
 _ZN7Akonadi9AgentBase12setAgentNameERK7QString@Base 15.07.90
 _ZN7Akonadi9AgentBase13componentDataEv@Base 15.07.90
 _ZN7Akonadi9AgentBase13onlineChangedEb@Base 15.07.90
 _ZN7Akonadi9AgentBase14abortRequestedEv@Base 15.07.90
 _ZN7Akonadi9AgentBase14advancedStatusERK4QMapI7QString8QVariantE@Base 15.07.90
 _ZN7Akonadi9AgentBase14parseArgumentsEiPPc@Base 15.07.90
 _ZN7Akonadi9AgentBase15changeProcessedEv@Base 15.07.90
 _ZN7Akonadi9AgentBase15setNeedsNetworkEb@Base 15.07.90
 _ZN7Akonadi9AgentBase16agentNameChangedERK7QString@Base 15.07.90
 _ZN7Akonadi9AgentBase16registerObserverEPNS0_8ObserverE@Base 15.07.90
 _ZN7Akonadi9AgentBase16staticMetaObjectE@Base 15.07.90
 _ZN7Akonadi9AgentBase17setOnlineInternalEb@Base 15.07.90
 _ZN7Akonadi9AgentBase19reloadConfigurationEv@Base 15.07.90
 _ZN7Akonadi9AgentBase19setTemporaryOfflineEi@Base 15.07.90
 _ZN7Akonadi9AgentBase27configurationDialogAcceptedEv@Base 15.07.90
 _ZN7Akonadi9AgentBase27configurationDialogRejectedEv@Base 15.07.90
 _ZN7Akonadi9AgentBase4initEPS0_@Base 15.07.90
 _ZN7Akonadi9AgentBase4quitEv@Base 15.07.90
 _ZN7Akonadi9AgentBase5abortEv@Base 15.07.90
 _ZN7Akonadi9AgentBase5errorERK7QString@Base 15.07.90
 _ZN7Akonadi9AgentBase6configEv@Base 15.07.90
 _ZN7Akonadi9AgentBase6statusEiRK7QString@Base 15.07.90
 _ZN7Akonadi9AgentBase7cleanupEv@Base 15.07.90
 _ZN7Akonadi9AgentBase7percentEi@Base 15.07.90
 _ZN7Akonadi9AgentBase7warningERK7QString@Base 15.07.90
 _ZN7Akonadi9AgentBase8Observer11itemChangedERKNS_4ItemERK4QSetI10QByteArrayE@Base 15.07.90
 _ZN7Akonadi9AgentBase8Observer11itemRemovedERKNS_4ItemE@Base 15.07.90
 _ZN7Akonadi9AgentBase8Observer15collectionAddedERKNS_10CollectionES4_@Base 15.07.90
 _ZN7Akonadi9AgentBase8Observer17collectionChangedERKNS_10CollectionE@Base 15.07.90
 _ZN7Akonadi9AgentBase8Observer17collectionRemovedERKNS_10CollectionE@Base 15.07.90
 _ZN7Akonadi9AgentBase8Observer9itemAddedERKNS_4ItemERKNS_10CollectionE@Base 15.07.90
 _ZN7Akonadi9AgentBase8ObserverC1Ev@Base 15.07.90
 _ZN7Akonadi9AgentBase8ObserverC2Ev@Base 15.07.90
 _ZN7Akonadi9AgentBase8ObserverD0Ev@Base 15.07.90
 _ZN7Akonadi9AgentBase8ObserverD1Ev@Base 15.07.90
 _ZN7Akonadi9AgentBase8ObserverD2Ev@Base 15.07.90
 (subst)_ZN7Akonadi9AgentBase9configureE{quintptr}@Base 15.07.90
 _ZN7Akonadi9AgentBase9setOnlineEb@Base 15.07.90
 _ZN7Akonadi9AgentBaseC1EPNS_16AgentBasePrivateERK7QString@Base 15.07.90
 _ZN7Akonadi9AgentBaseC1ERK7QString@Base 15.07.90
 _ZN7Akonadi9AgentBaseC2EPNS_16AgentBasePrivateERK7QString@Base 15.07.90
 _ZN7Akonadi9AgentBaseC2ERK7QString@Base 15.07.90
 _ZN7Akonadi9AgentBaseD0Ev@Base 15.07.90
 _ZN7Akonadi9AgentBaseD1Ev@Base 15.07.90
 _ZN7Akonadi9AgentBaseD2Ev@Base 15.07.90
 _ZNK7Akonadi12ResourceBase10metaObjectEv@Base 15.07.90
 _ZNK7Akonadi12ResourceBase11currentItemEv@Base 15.07.90
 _ZNK7Akonadi12ResourceBase14dumpMemoryInfoEv@Base 15.07.90
 _ZNK7Akonadi12ResourceBase17currentCollectionEv@Base 15.07.90
 _ZNK7Akonadi12ResourceBase17itemSyncBatchSizeEv@Base 15.07.90
 _ZNK7Akonadi12ResourceBase21dumpSchedulerToStringEv@Base 15.07.90
 _ZNK7Akonadi12ResourceBase22dumpMemoryInfoToStringEv@Base 15.07.90
 _ZNK7Akonadi12ResourceBase28dumpNotificationListToStringEv@Base 15.07.90
 _ZNK7Akonadi12ResourceBase4nameEv@Base 15.07.90
 _ZNK7Akonadi16AgentFactoryBase10metaObjectEv@Base 15.07.90
 _ZNK7Akonadi16AgentFactoryBase19createComponentDataERK7QString@Base 15.07.90
 _ZNK7Akonadi16PreprocessorBase10metaObjectEv@Base 15.07.90
 _ZNK7Akonadi16ResourceSettings10metaObjectEv@Base 15.07.90
 _ZNK7Akonadi9AgentBase10identifierEv@Base 15.07.90
 _ZNK7Akonadi9AgentBase10metaObjectEv@Base 15.07.90
 _ZNK7Akonadi9AgentBase13statusMessageEv@Base 15.07.90
 _ZNK7Akonadi9AgentBase14changeRecorderEv@Base 15.07.90
 _ZNK7Akonadi9AgentBase15progressMessageEv@Base 15.07.90
 _ZNK7Akonadi9AgentBase15winIdForDialogsEv@Base 15.07.90
 _ZNK7Akonadi9AgentBase6statusEv@Base 15.07.90
 _ZNK7Akonadi9AgentBase8isOnlineEv@Base 15.07.90
 _ZNK7Akonadi9AgentBase8progressEv@Base 15.07.90
 _ZNK7Akonadi9AgentBase9agentNameEv@Base 15.07.90
 _ZTI12QDBusContext@Base 15.07.90
 _ZTIN7Akonadi12ResourceBaseE@Base 15.07.90
 _ZTIN7Akonadi16AgentFactoryBaseE@Base 15.07.90
 _ZTIN7Akonadi16PreprocessorBaseE@Base 15.07.90
 _ZTIN7Akonadi16ResourceSettingsE@Base 15.07.90
 _ZTIN7Akonadi20AgentSearchInterfaceE@Base 15.07.90
 _ZTIN7Akonadi20ResourceBaseSettingsE@Base 15.07.90
 _ZTIN7Akonadi21TransportResourceBaseE@Base 15.07.90
 _ZTIN7Akonadi9AgentBase10ObserverV2E@Base 15.07.90
 _ZTIN7Akonadi9AgentBase10ObserverV3E@Base 15.07.90
 _ZTIN7Akonadi9AgentBase10ObserverV4E@Base 15.07.90
 _ZTIN7Akonadi9AgentBase8ObserverE@Base 15.07.90
 _ZTIN7Akonadi9AgentBaseE@Base 15.07.90
 _ZTS12QDBusContext@Base 15.07.90
 _ZTSN7Akonadi12ResourceBaseE@Base 15.07.90
 _ZTSN7Akonadi16AgentFactoryBaseE@Base 15.07.90
 _ZTSN7Akonadi16PreprocessorBaseE@Base 15.07.90
 _ZTSN7Akonadi16ResourceSettingsE@Base 15.07.90
 _ZTSN7Akonadi20AgentSearchInterfaceE@Base 15.07.90
 _ZTSN7Akonadi20ResourceBaseSettingsE@Base 15.07.90
 _ZTSN7Akonadi21TransportResourceBaseE@Base 15.07.90
 _ZTSN7Akonadi9AgentBase10ObserverV2E@Base 15.07.90
 _ZTSN7Akonadi9AgentBase10ObserverV3E@Base 15.07.90
 _ZTSN7Akonadi9AgentBase10ObserverV4E@Base 15.07.90
 _ZTSN7Akonadi9AgentBase8ObserverE@Base 15.07.90
 _ZTSN7Akonadi9AgentBaseE@Base 15.07.90
 _ZTVN7Akonadi12ResourceBaseE@Base 15.07.90
 _ZTVN7Akonadi16AgentFactoryBaseE@Base 15.07.90
 _ZTVN7Akonadi16PreprocessorBaseE@Base 15.07.90
 _ZTVN7Akonadi16ResourceSettingsE@Base 15.07.90
 _ZTVN7Akonadi20AgentSearchInterfaceE@Base 15.07.90
 _ZTVN7Akonadi20ResourceBaseSettingsE@Base 15.07.90
 _ZTVN7Akonadi21TransportResourceBaseE@Base 15.07.90
 _ZTVN7Akonadi9AgentBase10ObserverV2E@Base 15.07.90
 _ZTVN7Akonadi9AgentBase10ObserverV3E@Base 15.07.90
 _ZTVN7Akonadi9AgentBase10ObserverV4E@Base 15.07.90
 _ZTVN7Akonadi9AgentBase8ObserverE@Base 15.07.90
 _ZTVN7Akonadi9AgentBaseE@Base 15.07.90
